ARM GAS  /tmp/ccZYpa8J.s 			page 1


   1              		.syntax unified
   2              		.cpu cortex-m4
   3              		.fpu softvfp
   4              		.eabi_attribute 20, 1
   5              		.eabi_attribute 21, 1
   6              		.eabi_attribute 23, 3
   7              		.eabi_attribute 24, 1
   8              		.eabi_attribute 25, 1
   9              		.eabi_attribute 26, 1
  10              		.eabi_attribute 30, 2
  11              		.eabi_attribute 18, 4
  12              		.thumb
  13              		.file	"adc_lld.c"
  14              		.text
  15              	.Ltext0:
  16              		.cfi_sections	.debug_frame
  17              		.section	.text.adc_lld_init,"ax",%progbits
  18              		.align	2
  19              		.p2align 4,,15
  20              		.global	adc_lld_init
  21              		.thumb
  22              		.thumb_func
  23              		.type	adc_lld_init, %function
  24              	adc_lld_init:
  25              	.LFB120:
  26              		.file 1 "../../os/hal/platforms/STM32F4xx/adc_lld.c"
  27              		.loc 1 175 0
  28              		.cfi_startproc
  29              		@ args = 0, pretend = 0, frame = 0
  30              		@ frame_needed = 0, uses_anonymous_args = 0
  31              		.loc 1 177 0
  32 0000 4FF40C53 		mov	r3, #8960
  33              		.loc 1 175 0
  34 0004 10B5     		push	{r4, lr}
  35              	.LCFI0:
  36              		.cfi_def_cfa_offset 8
  37              		.cfi_offset 14, -4
  38              		.cfi_offset 4, -8
  39              		.loc 1 177 0
  40 0006 C4F20103 		movt	r3, 16385
  41              		.loc 1 181 0
  42 000a 40F20004 		movw	r4, #:lower16:.LANCHOR0
  43 000e C0F20004 		movt	r4, #:upper16:.LANCHOR0
  44              		.loc 1 177 0
  45 0012 0122     		movs	r2, #1
  46              		.loc 1 181 0
  47 0014 2046     		mov	r0, r4
  48              		.loc 1 177 0
  49 0016 5A60     		str	r2, [r3, #4]
  50              		.loc 1 181 0
  51 0018 FFF7FEFF 		bl	adcObjectInit
  52              		.loc 1 182 0
  53 001c 4FF40052 		mov	r2, #8192
  54 0020 C4F20102 		movt	r2, 16385
  55 0024 A262     		str	r2, [r4, #40]
  56              		.loc 1 184 0
  57 0026 42F61643 		movw	r3, #11286
ARM GAS  /tmp/ccZYpa8J.s 			page 2


  58              		.loc 1 183 0
  59 002a 054A     		ldr	r2, .L2
  60              		.loc 1 184 0
  61 002c C0F20203 		movt	r3, 2
  62              		.loc 1 220 0
  63 0030 1220     		movs	r0, #18
  64 0032 6021     		movs	r1, #96
  65              		.loc 1 183 0
  66 0034 E262     		str	r2, [r4, #44]
  67              		.loc 1 184 0
  68 0036 2363     		str	r3, [r4, #48]
  69              		.loc 1 221 0
  70 0038 BDE81040 		pop	{r4, lr}
  71              		.loc 1 220 0
  72 003c FFF7FEBF 		b	nvicEnableVector
  73              	.L3:
  74              		.align	2
  75              	.L2:
  76 0040 90000000 		.word	_stm32_dma_streams+144
  77              		.cfi_endproc
  78              	.LFE120:
  79              		.size	adc_lld_init, .-adc_lld_init
  80 0044 AFF30080 		.section	.text.adc_lld_start,"ax",%progbits
  80      AFF30080 
  80      AFF30080 
  81              		.align	2
  82              		.p2align 4,,15
  83              		.global	adc_lld_start
  84              		.thumb
  85              		.thumb_func
  86              		.type	adc_lld_start, %function
  87              	adc_lld_start:
  88              	.LFB121:
  89              		.loc 1 230 0
  90              		.cfi_startproc
  91              		@ args = 0, pretend = 0, frame = 0
  92              		@ frame_needed = 0, uses_anonymous_args = 0
  93              	.LVL0:
  94              		.loc 1 233 0
  95 0000 0378     		ldrb	r3, [r0, #0]	@ zero_extendqisi2
  96 0002 012B     		cmp	r3, #1
  97              		.loc 1 230 0
  98 0004 10B5     		push	{r4, lr}
  99              	.LCFI1:
 100              		.cfi_def_cfa_offset 8
 101              		.cfi_offset 14, -4
 102              		.cfi_offset 4, -8
 103              		.loc 1 230 0
 104 0006 0446     		mov	r4, r0
 105              		.loc 1 233 0
 106 0008 00D0     		beq	.L8
 107 000a 10BD     		pop	{r4, pc}
 108              	.L8:
 109              		.loc 1 235 0
 110 000c 0F4B     		ldr	r3, .L10
 111 000e 9842     		cmp	r0, r3
 112 0010 06D0     		beq	.L9
ARM GAS  /tmp/ccZYpa8J.s 			page 3


 113              	.LVL1:
 114              	.L6:
 115              		.loc 1 275 0
 116 0012 A36A     		ldr	r3, [r4, #40]
 117 0014 0022     		movs	r2, #0
 118 0016 5A60     		str	r2, [r3, #4]
 119              		.loc 1 276 0
 120 0018 9A60     		str	r2, [r3, #8]
 121              		.loc 1 277 0
 122 001a 0122     		movs	r2, #1
 123 001c 9A60     		str	r2, [r3, #8]
 124 001e 10BD     		pop	{r4, pc}
 125              	.L9:
 126              	.LBB2:
 127              		.loc 1 237 0
 128 0020 0B4A     		ldr	r2, .L10+4
 129 0022 C06A     		ldr	r0, [r0, #44]
 130 0024 0621     		movs	r1, #6
 131 0026 2346     		mov	r3, r4
 132 0028 FFF7FEFF 		bl	dmaStreamAllocate
 133              		.loc 1 242 0
 134 002c E36A     		ldr	r3, [r4, #44]
 135 002e 42F24C02 		movw	r2, #8268
 136 0032 1968     		ldr	r1, [r3, #0]
 137              		.loc 1 243 0
 138 0034 4FF46053 		mov	r3, #14336
 139 0038 C4F20203 		movt	r3, 16386
 140              		.loc 1 242 0
 141 003c C4F20102 		movt	r2, 16385
 142 0040 8A60     		str	r2, [r1, #8]
 143              		.loc 1 243 0
 144 0042 5A6C     		ldr	r2, [r3, #68]
 145 0044 42F48072 		orr	r2, r2, #256
 146 0048 5A64     		str	r2, [r3, #68]
 147 004a E2E7     		b	.L6
 148              	.L11:
 149              		.align	2
 150              	.L10:
 151 004c 00000000 		.word	.LANCHOR0
 152 0050 00000000 		.word	adc_lld_serve_rx_interrupt
 153              	.LBE2:
 154              		.cfi_endproc
 155              	.LFE121:
 156              		.size	adc_lld_start, .-adc_lld_start
 157 0054 AFF30080 		.section	.text.adc_lld_stop,"ax",%progbits
 157      AFF30080 
 157      AFF30080 
 158              		.align	2
 159              		.p2align 4,,15
 160              		.global	adc_lld_stop
 161              		.thumb
 162              		.thumb_func
 163              		.type	adc_lld_stop, %function
 164              	adc_lld_stop:
 165              	.LFB122:
 166              		.loc 1 288 0
 167              		.cfi_startproc
ARM GAS  /tmp/ccZYpa8J.s 			page 4


 168              		@ args = 0, pretend = 0, frame = 0
 169              		@ frame_needed = 0, uses_anonymous_args = 0
 170              	.LVL2:
 171              		.loc 1 291 0
 172 0000 0378     		ldrb	r3, [r0, #0]	@ zero_extendqisi2
 173 0002 022B     		cmp	r3, #2
 174              		.loc 1 288 0
 175 0004 10B5     		push	{r4, lr}
 176              	.LCFI2:
 177              		.cfi_def_cfa_offset 8
 178              		.cfi_offset 14, -4
 179              		.cfi_offset 4, -8
 180              		.loc 1 288 0
 181 0006 0446     		mov	r4, r0
 182              		.loc 1 291 0
 183 0008 00D0     		beq	.L14
 184 000a 10BD     		pop	{r4, pc}
 185              	.L14:
 186              		.loc 1 292 0
 187 000c C06A     		ldr	r0, [r0, #44]
 188              	.LVL3:
 189 000e FFF7FEFF 		bl	dmaStreamRelease
 190              		.loc 1 293 0
 191 0012 A36A     		ldr	r3, [r4, #40]
 192 0014 0022     		movs	r2, #0
 193 0016 5A60     		str	r2, [r3, #4]
 194              		.loc 1 294 0
 195 0018 9A60     		str	r2, [r3, #8]
 196              		.loc 1 297 0
 197 001a 064B     		ldr	r3, .L15
 198 001c 9C42     		cmp	r4, r3
 199              		.loc 1 298 0
 200 001e 01BF     		itttt	eq
 201 0020 4FF46053 		moveq	r3, #14336
 202 0024 C4F20203 		movteq	r3, 16386
 203 0028 5A6C     		ldreq	r2, [r3, #68]
 204 002a 22F48072 		biceq	r2, r2, #256
 205 002e 08BF     		it	eq
 206 0030 5A64     		streq	r2, [r3, #68]
 207 0032 10BD     		pop	{r4, pc}
 208              	.L16:
 209              		.align	2
 210              	.L15:
 211 0034 00000000 		.word	.LANCHOR0
 212              		.cfi_endproc
 213              	.LFE122:
 214              		.size	adc_lld_stop, .-adc_lld_stop
 215 0038 AFF30080 		.section	.text.adc_lld_start_conversion,"ax",%progbits
 215      AFF30080 
 216              		.align	2
 217              		.p2align 4,,15
 218              		.global	adc_lld_start_conversion
 219              		.thumb
 220              		.thumb_func
 221              		.type	adc_lld_start_conversion, %function
 222              	adc_lld_start_conversion:
 223              	.LFB123:
ARM GAS  /tmp/ccZYpa8J.s 			page 5


 224              		.loc 1 320 0
 225              		.cfi_startproc
 226              		@ args = 0, pretend = 0, frame = 0
 227              		@ frame_needed = 0, uses_anonymous_args = 0
 228              		@ link register save eliminated.
 229              	.LVL4:
 230              		.loc 1 322 0
 231 0000 0369     		ldr	r3, [r0, #16]
 232              	.LVL5:
 233              		.loc 1 325 0
 234 0002 026B     		ldr	r2, [r0, #48]
 235              	.LVL6:
 236              		.loc 1 326 0
 237 0004 1968     		ldr	r1, [r3, #0]
 238              		.loc 1 320 0
 239 0006 2DE9F007 		push	{r4, r5, r6, r7, r8, r9, sl}
 240              	.LCFI3:
 241              		.cfi_def_cfa_offset 28
 242              		.cfi_offset 10, -4
 243              		.cfi_offset 9, -8
 244              		.cfi_offset 8, -12
 245              		.cfi_offset 7, -16
 246              		.cfi_offset 6, -20
 247              		.cfi_offset 5, -24
 248              		.cfi_offset 4, -28
 249              		.loc 1 326 0
 250 000a 09B1     		cbz	r1, .L18
 251              		.loc 1 327 0
 252 000c 42F48072 		orr	r2, r2, #256
 253              	.LVL7:
 254              	.L18:
 255              		.loc 1 329 0
 256 0010 C468     		ldr	r4, [r0, #12]
 257              		.loc 1 334 0
 258 0012 C16A     		ldr	r1, [r0, #44]
 259              		.loc 1 335 0
 260 0014 9D88     		ldrh	r5, [r3, #4]
 261              		.loc 1 334 0
 262 0016 0968     		ldr	r1, [r1, #0]
 263 0018 8668     		ldr	r6, [r0, #8]
 264              		.loc 1 350 0
 265 001a D3F81080 		ldr	r8, [r3, #16]
 266              		.loc 1 352 0
 267 001e D3F81490 		ldr	r9, [r3, #20]
 268              		.loc 1 334 0
 269 0022 CE60     		str	r6, [r1, #12]
 270              		.loc 1 329 0
 271 0024 012C     		cmp	r4, #1
 272              		.loc 1 332 0
 273 0026 88BF     		it	hi
 274 0028 42F00802 		orrhi	r2, r2, #8
 275              	.LVL8:
 276              		.loc 1 335 0
 277 002c 04FB05F4 		mul	r4, r4, r5
 278 0030 4C60     		str	r4, [r1, #4]
 279              		.loc 1 337 0
 280 0032 0A60     		str	r2, [r1, #0]
ARM GAS  /tmp/ccZYpa8J.s 			page 6


 281              		.loc 1 338 0
 282 0034 D1F800C0 		ldr	ip, [r1, #0]
 283              		.loc 1 341 0
 284 0038 826A     		ldr	r2, [r0, #40]
 285              	.LVL9:
 286              		.loc 1 342 0
 287 003a 9F69     		ldr	r7, [r3, #24]
 288              		.loc 1 343 0
 289 003c DE69     		ldr	r6, [r3, #28]
 290              		.loc 1 344 0
 291 003e 1D6A     		ldr	r5, [r3, #32]
 292              		.loc 1 345 0
 293 0040 5C6A     		ldr	r4, [r3, #36]
 294              		.loc 1 346 0
 295 0042 D3F828A0 		ldr	sl, [r3, #40]
 296              		.loc 1 350 0
 297 0046 48F08060 		orr	r0, r8, #67108864
 298              	.LVL10:
 299              		.loc 1 352 0
 300 004a 49F44073 		orr	r3, r9, #768
 301              	.LVL11:
 302              		.loc 1 338 0
 303 004e 4CF0010C 		orr	ip, ip, #1
 304 0052 C1F800C0 		str	ip, [r1, #0]
 305              		.loc 1 350 0
 306 0056 40F48070 		orr	r0, r0, #256
 307              		.loc 1 352 0
 308 005a 43F00303 		orr	r3, r3, #3
 309              		.loc 1 341 0
 310 005e 0021     		movs	r1, #0
 311              	.LVL12:
 312 0060 1160     		str	r1, [r2, #0]
 313              		.loc 1 342 0
 314 0062 D760     		str	r7, [r2, #12]
 315              		.loc 1 343 0
 316 0064 1661     		str	r6, [r2, #16]
 317              		.loc 1 344 0
 318 0066 D562     		str	r5, [r2, #44]
 319              		.loc 1 345 0
 320 0068 1463     		str	r4, [r2, #48]
 321              		.loc 1 346 0
 322 006a C2F834A0 		str	sl, [r2, #52]
 323              		.loc 1 350 0
 324 006e 5060     		str	r0, [r2, #4]
 325              		.loc 1 351 0
 326 0070 9360     		str	r3, [r2, #8]
 327              		.loc 1 353 0
 328 0072 BDE8F007 		pop	{r4, r5, r6, r7, r8, r9, sl}
 329 0076 7047     		bx	lr
 330              		.cfi_endproc
 331              	.LFE123:
 332              		.size	adc_lld_start_conversion, .-adc_lld_start_conversion
 333 0078 AFF30080 		.section	.text.adc_lld_stop_conversion,"ax",%progbits
 333      AFF30080 
 334              		.align	2
 335              		.p2align 4,,15
 336              		.global	adc_lld_stop_conversion
ARM GAS  /tmp/ccZYpa8J.s 			page 7


 337              		.thumb
 338              		.thumb_func
 339              		.type	adc_lld_stop_conversion, %function
 340              	adc_lld_stop_conversion:
 341              	.LFB124:
 342              		.loc 1 362 0
 343              		.cfi_startproc
 344              		@ args = 0, pretend = 0, frame = 0
 345              		@ frame_needed = 0, uses_anonymous_args = 0
 346              		@ link register save eliminated.
 347              	.LVL13:
 348              		.loc 1 364 0
 349 0000 C16A     		ldr	r1, [r0, #44]
 350 0002 0A68     		ldr	r2, [r1, #0]
 351 0004 1368     		ldr	r3, [r2, #0]
 352 0006 23F00103 		bic	r3, r3, #1
 353              		.loc 1 362 0
 354 000a 10B4     		push	{r4}
 355              	.LCFI4:
 356              		.cfi_def_cfa_offset 4
 357              		.cfi_offset 4, -4
 358              		.loc 1 364 0
 359 000c 1360     		str	r3, [r2, #0]
 360              	.L21:
 361              		.loc 1 364 0 is_stmt 0 discriminator 1
 362 000e 1368     		ldr	r3, [r2, #0]
 363 0010 13F00103 		ands	r3, r3, #1
 364 0014 FBD1     		bne	.L21
 365              		.loc 1 364 0 discriminator 2
 366 0016 0C7A     		ldrb	r4, [r1, #8]	@ zero_extendqisi2
 367              		.loc 1 365 0 is_stmt 1 discriminator 2
 368 0018 826A     		ldr	r2, [r0, #40]
 369              		.loc 1 364 0 discriminator 2
 370 001a 4968     		ldr	r1, [r1, #4]
 371 001c 3D20     		movs	r0, #61
 372              	.LVL14:
 373 001e A040     		lsls	r0, r0, r4
 374 0020 0860     		str	r0, [r1, #0]
 375              		.loc 1 365 0 discriminator 2
 376 0022 5360     		str	r3, [r2, #4]
 377              		.loc 1 366 0 discriminator 2
 378 0024 9360     		str	r3, [r2, #8]
 379              		.loc 1 367 0 discriminator 2
 380 0026 0123     		movs	r3, #1
 381 0028 9360     		str	r3, [r2, #8]
 382              		.loc 1 368 0 discriminator 2
 383 002a 10BC     		pop	{r4}
 384 002c 7047     		bx	lr
 385              		.cfi_endproc
 386              	.LFE124:
 387              		.size	adc_lld_stop_conversion, .-adc_lld_stop_conversion
 388 002e 00BF     		.section	.text.adc_lld_serve_rx_interrupt,"ax",%progbits
 389              		.align	2
 390              		.p2align 4,,15
 391              		.thumb
 392              		.thumb_func
 393              		.type	adc_lld_serve_rx_interrupt, %function
ARM GAS  /tmp/ccZYpa8J.s 			page 8


 394              	adc_lld_serve_rx_interrupt:
 395              	.LFB118:
 396              		.loc 1 80 0
 397              		.cfi_startproc
 398              		@ args = 0, pretend = 0, frame = 0
 399              		@ frame_needed = 0, uses_anonymous_args = 0
 400              	.LVL15:
 401              		.loc 1 83 0
 402 0000 11F00C0F 		tst	r1, #12
 403              		.loc 1 80 0
 404 0004 38B5     		push	{r3, r4, r5, lr}
 405              	.LCFI5:
 406              		.cfi_def_cfa_offset 16
 407              		.cfi_offset 14, -4
 408              		.cfi_offset 5, -8
 409              		.cfi_offset 4, -12
 410              		.cfi_offset 3, -16
 411              		.loc 1 80 0
 412 0006 0D46     		mov	r5, r1
 413 0008 0446     		mov	r4, r0
 414              		.loc 1 83 0
 415 000a 47D1     		bne	.L36
 416              		.loc 1 91 0
 417 000c 0369     		ldr	r3, [r0, #16]
 418 000e 002B     		cmp	r3, #0
 419 0010 43D0     		beq	.L23
 420              		.loc 1 92 0
 421 0012 CA06     		lsls	r2, r1, #27
 422 0014 05D5     		bpl	.L28
 423              		.loc 1 94 0
 424 0016 9B68     		ldr	r3, [r3, #8]
 425 0018 1BB1     		cbz	r3, .L28
 426              		.loc 1 94 0 is_stmt 0 discriminator 1
 427 001a C268     		ldr	r2, [r0, #12]
 428 001c 8168     		ldr	r1, [r0, #8]
 429              	.LVL16:
 430 001e 5208     		lsrs	r2, r2, #1
 431 0020 9847     		blx	r3
 432              	.LVL17:
 433              	.L28:
 434              		.loc 1 96 0 is_stmt 1
 435 0022 AB06     		lsls	r3, r5, #26
 436 0024 39D5     		bpl	.L23
 437              		.loc 1 98 0
 438 0026 2169     		ldr	r1, [r4, #16]
 439 0028 0B68     		ldr	r3, [r1, #0]
 440 002a 7BB1     		cbz	r3, .L29
 441              		.loc 1 98 0 is_stmt 0 discriminator 1
 442 002c 8B68     		ldr	r3, [r1, #8]
 443 002e 002B     		cmp	r3, #0
 444 0030 33D0     		beq	.L23
 445              		.loc 1 98 0 discriminator 3
 446 0032 E268     		ldr	r2, [r4, #12]
 447 0034 012A     		cmp	r2, #1
 448 0036 50D9     		bls	.L30
 449              	.LBB3:
 450              		.loc 1 98 0 discriminator 4
ARM GAS  /tmp/ccZYpa8J.s 			page 9


 451 0038 8D88     		ldrh	r5, [r1, #4]
 452              	.LVL18:
 453 003a A168     		ldr	r1, [r4, #8]
 454 003c 5208     		lsrs	r2, r2, #1
 455              	.LVL19:
 456 003e 05FB02F5 		mul	r5, r5, r2
 457 0042 2046     		mov	r0, r4
 458 0044 01EB4501 		add	r1, r1, r5, lsl #1
 459 0048 9847     		blx	r3
 460              	.LVL20:
 461 004a 38BD     		pop	{r3, r4, r5, pc}
 462              	.LVL21:
 463              	.L29:
 464              	.LBE3:
 465              		.loc 1 98 0 discriminator 2
 466 004c 2046     		mov	r0, r4
 467 004e FFF7FEFF 		bl	adc_lld_stop_conversion
 468 0052 2169     		ldr	r1, [r4, #16]
 469 0054 8B68     		ldr	r3, [r1, #8]
 470 0056 002B     		cmp	r3, #0
 471 0058 46D0     		beq	.L31
 472              		.loc 1 98 0 discriminator 6
 473 005a E268     		ldr	r2, [r4, #12]
 474 005c 0420     		movs	r0, #4
 475 005e 012A     		cmp	r2, #1
 476 0060 2070     		strb	r0, [r4, #0]
 477 0062 44D9     		bls	.L32
 478              	.LBB4:
 479              		.loc 1 98 0 discriminator 8
 480 0064 8D88     		ldrh	r5, [r1, #4]
 481              	.LVL22:
 482 0066 A168     		ldr	r1, [r4, #8]
 483 0068 5208     		lsrs	r2, r2, #1
 484              	.LVL23:
 485 006a 05FB02F5 		mul	r5, r5, r2
 486 006e 2046     		mov	r0, r4
 487 0070 01EB4501 		add	r1, r1, r5, lsl #1
 488 0074 9847     		blx	r3
 489              	.LVL24:
 490              	.L33:
 491              	.LBE4:
 492              		.loc 1 98 0 discriminator 10
 493 0076 2378     		ldrb	r3, [r4, #0]	@ zero_extendqisi2
 494 0078 042B     		cmp	r3, #4
 495 007a 35D0     		beq	.L31
 496              	.L34:
 497              		.loc 1 98 0 discriminator 12
 498 007c 0022     		movs	r2, #0
 499 007e 2261     		str	r2, [r4, #16]
 500              	.LBB5:
 501 0080 2023     		movs	r3, #32
 502              	.LVL25:
 503              	@ 98 "../../os/hal/platforms/STM32F4xx/adc_lld.c" 1
 504 0082 83F31188 		msr     BASEPRI, r3
 505              	@ 0 "" 2
 506              	.LVL26:
 507              		.thumb
ARM GAS  /tmp/ccZYpa8J.s 			page 10


 508              	.LBE5:
 509 0086 6369     		ldr	r3, [r4, #20]
 510              	.LVL27:
 511 0088 23B1     		cbz	r3, .L35
 512              	.LVL28:
 513              	.LBB6:
 514              		.loc 1 98 0 discriminator 13
 515 008a 6261     		str	r2, [r4, #20]
 516 008c 1846     		mov	r0, r3
 517 008e 5A62     		str	r2, [r3, #36]
 518 0090 FFF7FEFF 		bl	chSchReadyI
 519              	.LVL29:
 520              	.L35:
 521              	.LBE6:
 522              	.LBB7:
 523              		.loc 1 98 0 discriminator 14
 524 0094 0023     		movs	r3, #0
 525              	.LVL30:
 526              	@ 98 "../../os/hal/platforms/STM32F4xx/adc_lld.c" 1
 527 0096 83F31188 		msr     BASEPRI, r3
 528              	@ 0 "" 2
 529              	.LVL31:
 530              		.thumb
 531              	.L23:
 532 009a 38BD     		pop	{r3, r4, r5, pc}
 533              	.LVL32:
 534              	.L36:
 535              	.LBE7:
 536              		.loc 1 86 0 is_stmt 1
 537 009c FFF7FEFF 		bl	adc_lld_stop_conversion
 538              	.LVL33:
 539 00a0 2369     		ldr	r3, [r4, #16]
 540 00a2 DB68     		ldr	r3, [r3, #12]
 541 00a4 3BB1     		cbz	r3, .L25
 542              		.loc 1 86 0 is_stmt 0 discriminator 1
 543 00a6 0522     		movs	r2, #5
 544 00a8 0021     		movs	r1, #0
 545 00aa 2270     		strb	r2, [r4, #0]
 546 00ac 2046     		mov	r0, r4
 547 00ae 9847     		blx	r3
 548 00b0 2378     		ldrb	r3, [r4, #0]	@ zero_extendqisi2
 549 00b2 052B     		cmp	r3, #5
 550 00b4 15D0     		beq	.L37
 551              	.L25:
 552              		.loc 1 86 0 discriminator 2
 553 00b6 0022     		movs	r2, #0
 554 00b8 2261     		str	r2, [r4, #16]
 555              	.LBB8:
 556 00ba 2023     		movs	r3, #32
 557              	.LVL34:
 558              	@ 86 "../../os/hal/platforms/STM32F4xx/adc_lld.c" 1
 559 00bc 83F31188 		msr     BASEPRI, r3
 560              	@ 0 "" 2
 561              	.LVL35:
 562              		.thumb
 563              	.LBE8:
 564 00c0 6369     		ldr	r3, [r4, #20]
ARM GAS  /tmp/ccZYpa8J.s 			page 11


 565              	.LVL36:
 566 00c2 33B1     		cbz	r3, .L26
 567              	.LVL37:
 568              	.LBB9:
 569              		.loc 1 86 0 discriminator 4
 570 00c4 6261     		str	r2, [r4, #20]
 571 00c6 4FF0FF32 		mov	r2, #-1
 572 00ca 1846     		mov	r0, r3
 573 00cc 5A62     		str	r2, [r3, #36]
 574 00ce FFF7FEFF 		bl	chSchReadyI
 575              	.LVL38:
 576              	.L26:
 577              	.LBE9:
 578              	.LBB10:
 579              		.loc 1 86 0 discriminator 5
 580 00d2 0023     		movs	r3, #0
 581              	.LVL39:
 582              	@ 86 "../../os/hal/platforms/STM32F4xx/adc_lld.c" 1
 583 00d4 83F31188 		msr     BASEPRI, r3
 584              	@ 0 "" 2
 585              	.LVL40:
 586              		.thumb
 587 00d8 38BD     		pop	{r3, r4, r5, pc}
 588              	.LVL41:
 589              	.L30:
 590              	.LBE10:
 591              		.loc 1 98 0 is_stmt 1 discriminator 5
 592 00da 2046     		mov	r0, r4
 593 00dc A168     		ldr	r1, [r4, #8]
 594 00de 9847     		blx	r3
 595 00e0 38BD     		pop	{r3, r4, r5, pc}
 596              	.L37:
 597              		.loc 1 86 0 discriminator 3
 598 00e2 0223     		movs	r3, #2
 599 00e4 2370     		strb	r3, [r4, #0]
 600 00e6 E6E7     		b	.L25
 601              	.LVL42:
 602              	.L31:
 603              		.loc 1 98 0 discriminator 7
 604 00e8 0223     		movs	r3, #2
 605 00ea 2370     		strb	r3, [r4, #0]
 606 00ec C6E7     		b	.L34
 607              	.LVL43:
 608              	.L32:
 609              		.loc 1 98 0 is_stmt 0 discriminator 9
 610 00ee 2046     		mov	r0, r4
 611 00f0 A168     		ldr	r1, [r4, #8]
 612 00f2 9847     		blx	r3
 613 00f4 BFE7     		b	.L33
 614              		.cfi_endproc
 615              	.LFE118:
 616              		.size	adc_lld_serve_rx_interrupt, .-adc_lld_serve_rx_interrupt
 617 00f6 00BFAFF3 		.section	.text.Vector88,"ax",%progbits
 617      0080AFF3 
 617      0080
 618              		.align	2
 619              		.p2align 4,,15
ARM GAS  /tmp/ccZYpa8J.s 			page 12


 620              		.global	Vector88
 621              		.thumb
 622              		.thumb_func
 623              		.type	Vector88, %function
 624              	Vector88:
 625              	.LFB119:
 626              		.loc 1 115 0 is_stmt 1
 627              		.cfi_startproc
 628              		@ args = 0, pretend = 0, frame = 0
 629              		@ frame_needed = 0, uses_anonymous_args = 0
 630              		.loc 1 121 0
 631 0000 4FF40053 		mov	r3, #8192
 632 0004 C4F20103 		movt	r3, 16385
 633              		.loc 1 122 0
 634 0008 0021     		movs	r1, #0
 635              		.loc 1 121 0
 636 000a 1A68     		ldr	r2, [r3, #0]
 637              	.LVL44:
 638              		.loc 1 115 0
 639 000c 10B5     		push	{r4, lr}
 640              	.LCFI6:
 641              		.cfi_def_cfa_offset 8
 642              		.cfi_offset 14, -4
 643              		.cfi_offset 4, -8
 644              		.loc 1 122 0
 645 000e 1960     		str	r1, [r3, #0]
 646              		.loc 1 125 0
 647 0010 9106     		lsls	r1, r2, #26
 648 0012 25D5     		bpl	.L39
 649              		.loc 1 125 0 is_stmt 0 discriminator 1
 650 0014 164C     		ldr	r4, .L43
 651 0016 E36A     		ldr	r3, [r4, #44]
 652 0018 1B68     		ldr	r3, [r3, #0]
 653 001a 5B68     		ldr	r3, [r3, #4]
 654 001c 03B3     		cbz	r3, .L39
 655              		.loc 1 128 0 is_stmt 1
 656 001e 2369     		ldr	r3, [r4, #16]
 657 0020 F3B1     		cbz	r3, .L39
 658              		.loc 1 129 0
 659 0022 2046     		mov	r0, r4
 660 0024 FFF7FEFF 		bl	adc_lld_stop_conversion
 661              	.LVL45:
 662 0028 2369     		ldr	r3, [r4, #16]
 663 002a DB68     		ldr	r3, [r3, #12]
 664 002c 3BB1     		cbz	r3, .L40
 665              		.loc 1 129 0 is_stmt 0 discriminator 1
 666 002e 0522     		movs	r2, #5
 667 0030 0121     		movs	r1, #1
 668 0032 2270     		strb	r2, [r4, #0]
 669 0034 2046     		mov	r0, r4
 670 0036 9847     		blx	r3
 671 0038 2378     		ldrb	r3, [r4, #0]	@ zero_extendqisi2
 672 003a 052B     		cmp	r3, #5
 673 003c 14D0     		beq	.L42
 674              	.L40:
 675              		.loc 1 129 0 discriminator 2
 676 003e 0022     		movs	r2, #0
ARM GAS  /tmp/ccZYpa8J.s 			page 13


 677 0040 2261     		str	r2, [r4, #16]
 678              	.LBB11:
 679 0042 2023     		movs	r3, #32
 680              	.LVL46:
 681              	@ 129 "../../os/hal/platforms/STM32F4xx/adc_lld.c" 1
 682 0044 83F31188 		msr     BASEPRI, r3
 683              	@ 0 "" 2
 684              	.LVL47:
 685              		.thumb
 686              	.LBE11:
 687 0048 6069     		ldr	r0, [r4, #20]
 688 004a 30B1     		cbz	r0, .L41
 689              	.LVL48:
 690              	.LBB12:
 691              		.loc 1 129 0 discriminator 4
 692 004c 4FF0FF33 		mov	r3, #-1
 693              	.LVL49:
 694 0050 4362     		str	r3, [r0, #36]
 695 0052 074B     		ldr	r3, .L43
 696 0054 5A61     		str	r2, [r3, #20]
 697 0056 FFF7FEFF 		bl	chSchReadyI
 698              	.LVL50:
 699              	.L41:
 700              	.LBE12:
 701              	.LBB13:
 702              		.loc 1 129 0 discriminator 5
 703 005a 0023     		movs	r3, #0
 704              	.LVL51:
 705              	@ 129 "../../os/hal/platforms/STM32F4xx/adc_lld.c" 1
 706 005c 83F31188 		msr     BASEPRI, r3
 707              	@ 0 "" 2
 708              	.LVL52:
 709              		.thumb
 710              	.L39:
 711              	.LBE13:
 712              		.loc 1 163 0 is_stmt 1
 713 0060 BDE81040 		pop	{r4, lr}
 714              		.loc 1 162 0
 715 0064 FFF7FEBF 		b	_port_irq_epilogue
 716              	.LVL53:
 717              	.L42:
 718              		.loc 1 129 0 discriminator 3
 719 0068 0223     		movs	r3, #2
 720 006a 2370     		strb	r3, [r4, #0]
 721 006c E7E7     		b	.L40
 722              	.L44:
 723 006e 00BF     		.align	2
 724              	.L43:
 725 0070 00000000 		.word	.LANCHOR0
 726              		.cfi_endproc
 727              	.LFE119:
 728              		.size	Vector88, .-Vector88
 729 0074 AFF30080 		.section	.text.adcSTM32EnableTSVREFE,"ax",%progbits
 729      AFF30080 
 729      AFF30080 
 730              		.align	2
 731              		.p2align 4,,15
ARM GAS  /tmp/ccZYpa8J.s 			page 14


 732              		.global	adcSTM32EnableTSVREFE
 733              		.thumb
 734              		.thumb_func
 735              		.type	adcSTM32EnableTSVREFE, %function
 736              	adcSTM32EnableTSVREFE:
 737              	.LFB125:
 738              		.loc 1 376 0
 739              		.cfi_startproc
 740              		@ args = 0, pretend = 0, frame = 0
 741              		@ frame_needed = 0, uses_anonymous_args = 0
 742              		@ link register save eliminated.
 743              		.loc 1 378 0
 744 0000 4FF40C53 		mov	r3, #8960
 745 0004 C4F20103 		movt	r3, 16385
 746 0008 5A68     		ldr	r2, [r3, #4]
 747 000a 42F40002 		orr	r2, r2, #8388608
 748 000e 5A60     		str	r2, [r3, #4]
 749              		.loc 1 379 0
 750 0010 7047     		bx	lr
 751              		.cfi_endproc
 752              	.LFE125:
 753              		.size	adcSTM32EnableTSVREFE, .-adcSTM32EnableTSVREFE
 754              		.section	.text.adcSTM32DisableTSVREFE,"ax",%progbits
 755              		.align	2
 756              		.p2align 4,,15
 757              		.global	adcSTM32DisableTSVREFE
 758              		.thumb
 759              		.thumb_func
 760              		.type	adcSTM32DisableTSVREFE, %function
 761              	adcSTM32DisableTSVREFE:
 762              	.LFB126:
 763              		.loc 1 387 0
 764              		.cfi_startproc
 765              		@ args = 0, pretend = 0, frame = 0
 766              		@ frame_needed = 0, uses_anonymous_args = 0
 767              		@ link register save eliminated.
 768              		.loc 1 389 0
 769 0000 4FF40C53 		mov	r3, #8960
 770 0004 C4F20103 		movt	r3, 16385
 771 0008 5A68     		ldr	r2, [r3, #4]
 772 000a 22F40002 		bic	r2, r2, #8388608
 773 000e 5A60     		str	r2, [r3, #4]
 774              		.loc 1 390 0
 775 0010 7047     		bx	lr
 776              		.cfi_endproc
 777              	.LFE126:
 778              		.size	adcSTM32DisableTSVREFE, .-adcSTM32DisableTSVREFE
 779              		.section	.text.adcSTM32EnableVBATE,"ax",%progbits
 780              		.align	2
 781              		.p2align 4,,15
 782              		.global	adcSTM32EnableVBATE
 783              		.thumb
 784              		.thumb_func
 785              		.type	adcSTM32EnableVBATE, %function
 786              	adcSTM32EnableVBATE:
 787              	.LFB127:
 788              		.loc 1 397 0
ARM GAS  /tmp/ccZYpa8J.s 			page 15


 789              		.cfi_startproc
 790              		@ args = 0, pretend = 0, frame = 0
 791              		@ frame_needed = 0, uses_anonymous_args = 0
 792              		@ link register save eliminated.
 793              		.loc 1 399 0
 794 0000 4FF40C53 		mov	r3, #8960
 795 0004 C4F20103 		movt	r3, 16385
 796 0008 5A68     		ldr	r2, [r3, #4]
 797 000a 42F48002 		orr	r2, r2, #4194304
 798 000e 5A60     		str	r2, [r3, #4]
 799              		.loc 1 400 0
 800 0010 7047     		bx	lr
 801              		.cfi_endproc
 802              	.LFE127:
 803              		.size	adcSTM32EnableVBATE, .-adcSTM32EnableVBATE
 804              		.section	.text.adcSTM32DisableVBATE,"ax",%progbits
 805              		.align	2
 806              		.p2align 4,,15
 807              		.global	adcSTM32DisableVBATE
 808              		.thumb
 809              		.thumb_func
 810              		.type	adcSTM32DisableVBATE, %function
 811              	adcSTM32DisableVBATE:
 812              	.LFB128:
 813              		.loc 1 407 0
 814              		.cfi_startproc
 815              		@ args = 0, pretend = 0, frame = 0
 816              		@ frame_needed = 0, uses_anonymous_args = 0
 817              		@ link register save eliminated.
 818              		.loc 1 409 0
 819 0000 4FF40C53 		mov	r3, #8960
 820 0004 C4F20103 		movt	r3, 16385
 821 0008 5A68     		ldr	r2, [r3, #4]
 822 000a 22F48002 		bic	r2, r2, #4194304
 823 000e 5A60     		str	r2, [r3, #4]
 824              		.loc 1 410 0
 825 0010 7047     		bx	lr
 826              		.cfi_endproc
 827              	.LFE128:
 828              		.size	adcSTM32DisableVBATE, .-adcSTM32DisableVBATE
 829              		.global	ADCD1
 830 0012 00BFAFF3 		.section	.bss.ADCD1,"aw",%nobits
 830      0080AFF3 
 830      0080AFF3 
 830      0080
 831              		.align	2
 832              		.set	.LANCHOR0,. + 0
 833              		.type	ADCD1, %object
 834              		.size	ADCD1, 52
 835              	ADCD1:
 836 0000 00000000 		.space	52
 836      00000000 
 836      00000000 
 836      00000000 
 836      00000000 
 837              		.text
 838              	.Letext0:
ARM GAS  /tmp/ccZYpa8J.s 			page 16


 839              		.file 2 "/home/craig/gcc/arm/lib/gcc/arm-none-eabi/4.6.2/include/stddef.h"
 840              		.file 3 "/home/craig/gcc/arm/lib/gcc/arm-none-eabi/4.6.2/../../../../arm-none-eabi/include/stdint.
 841              		.file 4 "../../os/ports/GCC/ARMCMx/chtypes.h"
 842              		.file 5 "../../os/kernel/include/chlists.h"
 843              		.file 6 "../../os/kernel/include/chthreads.h"
 844              		.file 7 "../../os/ports/GCC/ARMCMx/chcore_v7m.h"
 845              		.file 8 "../../os/kernel/include/chmtx.h"
 846              		.file 9 "../../os/hal/platforms/STM32F4xx/stm32f4xx.h"
 847              		.file 10 "../../os/hal/platforms/STM32F4xx/stm32_dma.h"
 848              		.file 11 "../../os/hal/include/adc.h"
 849              		.file 12 "../../os/hal/platforms/STM32F4xx/adc_lld.h"
 850              		.file 13 "../../os/ports/common/ARMCMx/CMSIS/include/core_cm4.h"