ARM GAS  /tmp/ccSOTBKW.s 			page 1


   1              		.syntax unified
   2              		.cpu cortex-m4
   3              		.fpu softvfp
   4              		.eabi_attribute 20, 1
   5              		.eabi_attribute 21, 1
   6              		.eabi_attribute 23, 3
   7              		.eabi_attribute 24, 1
   8              		.eabi_attribute 25, 1
   9              		.eabi_attribute 26, 1
  10              		.eabi_attribute 30, 2
  11              		.eabi_attribute 18, 4
  12              		.thumb
  13              		.file	"can.c"
  14              		.text
  15              	.Ltext0:
  16              		.cfi_sections	.debug_frame
  17              		.section	.text.canInit,"ax",%progbits
  18              		.align	2
  19              		.p2align 4,,15
  20              		.global	canInit
  21              		.thumb
  22              		.thumb_func
  23              		.type	canInit, %function
  24              	canInit:
  25              	.LFB118:
  26              		.file 1 "../../os/hal/src/can.c"
  27              		.loc 1 61 0
  28              		.cfi_startproc
  29              		@ args = 0, pretend = 0, frame = 0
  30              		@ frame_needed = 0, uses_anonymous_args = 0
  31              		@ link register save eliminated.
  32              		.loc 1 64 0
  33              		.loc 1 63 0
  34 0000 FFF7FEBF 		b	can_lld_init
  35              		.cfi_endproc
  36              	.LFE118:
  37              		.size	canInit, .-canInit
  38 0004 AFF30080 		.section	.text.canObjectInit,"ax",%progbits
  38      AFF30080 
  38      AFF30080 
  39              		.align	2
  40              		.p2align 4,,15
  41              		.global	canObjectInit
  42              		.thumb
  43              		.thumb_func
  44              		.type	canObjectInit, %function
  45              	canObjectInit:
  46              	.LFB119:
  47              		.loc 1 73 0
  48              		.cfi_startproc
  49              		@ args = 0, pretend = 0, frame = 0
  50              		@ frame_needed = 0, uses_anonymous_args = 0
  51              	.LVL0:
  52 0000 70B5     		push	{r4, r5, r6, lr}
  53              	.LCFI0:
  54              		.cfi_def_cfa_offset 16
  55              		.cfi_offset 14, -4
ARM GAS  /tmp/ccSOTBKW.s 			page 2


  56              		.cfi_offset 6, -8
  57              		.cfi_offset 5, -12
  58              		.cfi_offset 4, -16
  59              		.loc 1 73 0
  60 0002 0446     		mov	r4, r0
  61              		.loc 1 76 0
  62 0004 0025     		movs	r5, #0
  63              		.loc 1 75 0
  64 0006 0123     		movs	r3, #1
  65 0008 2370     		strb	r3, [r4, #0]
  66              		.loc 1 77 0
  67 000a 00F10800 		add	r0, r0, #8
  68              	.LVL1:
  69 000e 2946     		mov	r1, r5
  70              		.loc 1 76 0
  71 0010 6560     		str	r5, [r4, #4]
  72              		.loc 1 77 0
  73 0012 FFF7FEFF 		bl	chSemInit
  74              		.loc 1 78 0
  75 0016 04F11400 		add	r0, r4, #20
  76 001a 2946     		mov	r1, r5
  77 001c FFF7FEFF 		bl	chSemInit
  78              		.loc 1 79 0
  79 0020 04F12006 		add	r6, r4, #32
  80              		.loc 1 80 0
  81 0024 04F12400 		add	r0, r4, #36
  82              		.loc 1 81 0
  83 0028 04F12801 		add	r1, r4, #40
  84              		.loc 1 84 0
  85 002c 04F13002 		add	r2, r4, #48
  86              		.loc 1 85 0
  87 0030 04F13403 		add	r3, r4, #52
  88              		.loc 1 79 0
  89 0034 2662     		str	r6, [r4, #32]
  90              		.loc 1 80 0
  91 0036 6062     		str	r0, [r4, #36]
  92              		.loc 1 81 0
  93 0038 A162     		str	r1, [r4, #40]
  94              		.loc 1 82 0
  95 003a E562     		str	r5, [r4, #44]
  96              		.loc 1 84 0
  97 003c 2263     		str	r2, [r4, #48]
  98              		.loc 1 85 0
  99 003e 6363     		str	r3, [r4, #52]
 100              		.loc 1 87 0
 101 0040 70BD     		pop	{r4, r5, r6, pc}
 102              		.cfi_endproc
 103              	.LFE119:
 104              		.size	canObjectInit, .-canObjectInit
 105 0042 00BFAFF3 		.section	.text.canStart,"ax",%progbits
 105      0080AFF3 
 105      0080AFF3 
 105      0080
 106              		.align	2
 107              		.p2align 4,,15
 108              		.global	canStart
 109              		.thumb
ARM GAS  /tmp/ccSOTBKW.s 			page 3


 110              		.thumb_func
 111              		.type	canStart, %function
 112              	canStart:
 113              	.LFB120:
 114              		.loc 1 101 0
 115              		.cfi_startproc
 116              		@ args = 0, pretend = 0, frame = 0
 117              		@ frame_needed = 0, uses_anonymous_args = 0
 118              	.LVL2:
 119 0000 38B5     		push	{r3, r4, r5, lr}
 120              	.LCFI1:
 121              		.cfi_def_cfa_offset 16
 122              		.cfi_offset 14, -4
 123              		.cfi_offset 5, -8
 124              		.cfi_offset 4, -12
 125              		.cfi_offset 3, -16
 126              		.loc 1 101 0
 127 0002 0446     		mov	r4, r0
 128 0004 0D46     		mov	r5, r1
 129              	.LBB2:
 130              		.loc 1 105 0
 131 0006 2023     		movs	r3, #32
 132              	.LVL3:
 133              	@ 105 "../../os/hal/src/can.c" 1
 134 0008 83F31188 		msr     BASEPRI, r3
 135              	@ 0 "" 2
 136              	.LVL4:
 137              		.thumb
 138              	.LBE2:
 139              		.loc 1 110 0
 140 000c 0378     		ldrb	r3, [r0, #0]	@ zero_extendqisi2
 141              	.LVL5:
 142 000e 022B     		cmp	r3, #2
 143 0010 06D1     		bne	.L4
 144              	.LVL6:
 145              	.L7:
 146              		.loc 1 111 0
 147 0012 0620     		movs	r0, #6
 148 0014 0121     		movs	r1, #1
 149 0016 FFF7FEFF 		bl	chSchGoSleepTimeoutS
 150              		.loc 1 110 0
 151 001a 2378     		ldrb	r3, [r4, #0]	@ zero_extendqisi2
 152 001c 022B     		cmp	r3, #2
 153 001e F8D0     		beq	.L7
 154              	.L4:
 155              		.loc 1 112 0
 156 0020 012B     		cmp	r3, #1
 157 0022 03D0     		beq	.L10
 158              	.L6:
 159              	.LBB3:
 160              		.loc 1 117 0
 161 0024 0023     		movs	r3, #0
 162              	.LVL7:
 163              	@ 117 "../../os/hal/src/can.c" 1
 164 0026 83F31188 		msr     BASEPRI, r3
 165              	@ 0 "" 2
 166              	.LVL8:
ARM GAS  /tmp/ccSOTBKW.s 			page 4


 167              		.thumb
 168              	.LBE3:
 169              		.loc 1 118 0
 170 002a 38BD     		pop	{r3, r4, r5, pc}
 171              	.LVL9:
 172              	.L10:
 173              		.loc 1 113 0
 174 002c 6560     		str	r5, [r4, #4]
 175              		.loc 1 114 0
 176 002e 2046     		mov	r0, r4
 177 0030 FFF7FEFF 		bl	can_lld_start
 178              		.loc 1 115 0
 179 0034 0323     		movs	r3, #3
 180 0036 2370     		strb	r3, [r4, #0]
 181 0038 F4E7     		b	.L6
 182              		.cfi_endproc
 183              	.LFE120:
 184              		.size	canStart, .-canStart
 185 003a 00BFAFF3 		.section	.text.canStop,"ax",%progbits
 185      0080
 186              		.align	2
 187              		.p2align 4,,15
 188              		.global	canStop
 189              		.thumb
 190              		.thumb_func
 191              		.type	canStop, %function
 192              	canStop:
 193              	.LFB121:
 194              		.loc 1 127 0
 195              		.cfi_startproc
 196              		@ args = 0, pretend = 0, frame = 0
 197              		@ frame_needed = 0, uses_anonymous_args = 0
 198              	.LVL10:
 199 0000 10B5     		push	{r4, lr}
 200              	.LCFI2:
 201              		.cfi_def_cfa_offset 8
 202              		.cfi_offset 14, -4
 203              		.cfi_offset 4, -8
 204              	.LBB4:
 205              		.loc 1 131 0
 206 0002 2023     		movs	r3, #32
 207              	.LVL11:
 208              	.LBE4:
 209              		.loc 1 127 0
 210 0004 0446     		mov	r4, r0
 211              	.LBB5:
 212              		.loc 1 131 0
 213              	@ 131 "../../os/hal/src/can.c" 1
 214 0006 83F31188 		msr     BASEPRI, r3
 215              	@ 0 "" 2
 216              	.LVL12:
 217              		.thumb
 218              	.LBE5:
 219              		.loc 1 134 0
 220 000a FFF7FEFF 		bl	can_lld_stop
 221              	.LVL13:
 222              		.loc 1 135 0
ARM GAS  /tmp/ccSOTBKW.s 			page 5


 223 000e 04F11400 		add	r0, r4, #20
 224 0012 0021     		movs	r1, #0
 225 0014 FFF7FEFF 		bl	chSemResetI
 226              		.loc 1 136 0
 227 0018 04F10800 		add	r0, r4, #8
 228 001c 0021     		movs	r1, #0
 229 001e FFF7FEFF 		bl	chSemResetI
 230              		.loc 1 137 0
 231 0022 FFF7FEFF 		bl	chSchRescheduleS
 232              		.loc 1 139 0
 233 0026 0023     		movs	r3, #0
 234              		.loc 1 138 0
 235 0028 0122     		movs	r2, #1
 236 002a 2270     		strb	r2, [r4, #0]
 237              		.loc 1 139 0
 238 002c E362     		str	r3, [r4, #44]
 239              	.LBB6:
 240              		.loc 1 140 0
 241              	@ 140 "../../os/hal/src/can.c" 1
 242 002e 83F31188 		msr     BASEPRI, r3
 243              	@ 0 "" 2
 244              	.LVL14:
 245              		.thumb
 246              	.LBE6:
 247              		.loc 1 141 0
 248 0032 10BD     		pop	{r4, pc}
 249              		.cfi_endproc
 250              	.LFE121:
 251              		.size	canStop, .-canStop
 252 0034 AFF30080 		.section	.text.canTransmit,"ax",%progbits
 252      AFF30080 
 252      AFF30080 
 253              		.align	2
 254              		.p2align 4,,15
 255              		.global	canTransmit
 256              		.thumb
 257              		.thumb_func
 258              		.type	canTransmit, %function
 259              	canTransmit:
 260              	.LFB122:
 261              		.loc 1 163 0
 262              		.cfi_startproc
 263              		@ args = 0, pretend = 0, frame = 0
 264              		@ frame_needed = 0, uses_anonymous_args = 0
 265              	.LVL15:
 266 0000 F8B5     		push	{r3, r4, r5, r6, r7, lr}
 267              	.LCFI3:
 268              		.cfi_def_cfa_offset 24
 269              		.cfi_offset 14, -4
 270              		.cfi_offset 7, -8
 271              		.cfi_offset 6, -12
 272              		.cfi_offset 5, -16
 273              		.cfi_offset 4, -20
 274              		.cfi_offset 3, -24
 275              		.loc 1 163 0
 276 0002 0446     		mov	r4, r0
 277 0004 0D46     		mov	r5, r1
ARM GAS  /tmp/ccSOTBKW.s 			page 6


 278 0006 1646     		mov	r6, r2
 279              	.LBB7:
 280              		.loc 1 167 0
 281 0008 2023     		movs	r3, #32
 282              	.LVL16:
 283              	@ 167 "../../os/hal/src/can.c" 1
 284 000a 83F31188 		msr     BASEPRI, r3
 285              	@ 0 "" 2
 286              	.LVL17:
 287              		.thumb
 288              	.LBE7:
 289              	.LBB8:
 290              		.loc 1 171 0
 291 000e 00F10807 		add	r7, r0, #8
 292              	.LVL18:
 293              	.L13:
 294              	.LBE8:
 295              		.loc 1 170 0 discriminator 1
 296 0012 2378     		ldrb	r3, [r4, #0]	@ zero_extendqisi2
 297              	.LVL19:
 298 0014 042B     		cmp	r3, #4
 299 0016 2046     		mov	r0, r4
 300 0018 02D0     		beq	.L15
 301              		.loc 1 170 0 is_stmt 0 discriminator 2
 302 001a FFF7FEFF 		bl	can_lld_can_transmit
 303 001e 48B9     		cbnz	r0, .L17
 304              	.L15:
 305              	.LBB10:
 306              		.loc 1 171 0 is_stmt 1
 307 0020 3846     		mov	r0, r7
 308 0022 3146     		mov	r1, r6
 309 0024 FFF7FEFF 		bl	chSemWaitTimeoutS
 310              	.LVL20:
 311              		.loc 1 172 0
 312 0028 0028     		cmp	r0, #0
 313 002a F2D0     		beq	.L13
 314              	.LBB9:
 315              		.loc 1 173 0
 316 002c 0023     		movs	r3, #0
 317              	.LVL21:
 318              	@ 173 "../../os/hal/src/can.c" 1
 319 002e 83F31188 		msr     BASEPRI, r3
 320              	@ 0 "" 2
 321              	.LVL22:
 322              		.thumb
 323              	.LBE9:
 324              		.loc 1 174 0
 325 0032 F8BD     		pop	{r3, r4, r5, r6, r7, pc}
 326              	.LVL23:
 327              	.L17:
 328              	.LBE10:
 329              		.loc 1 177 0
 330 0034 2046     		mov	r0, r4
 331 0036 2946     		mov	r1, r5
 332 0038 FFF7FEFF 		bl	can_lld_transmit
 333              	.LBB11:
 334              		.loc 1 178 0
ARM GAS  /tmp/ccSOTBKW.s 			page 7


 335 003c 0023     		movs	r3, #0
 336              	.LVL24:
 337              	@ 178 "../../os/hal/src/can.c" 1
 338 003e 83F31188 		msr     BASEPRI, r3
 339              	@ 0 "" 2
 340              	.LVL25:
 341              		.thumb
 342              	.LBE11:
 343              		.loc 1 179 0
 344 0042 1846     		mov	r0, r3
 345              		.loc 1 180 0
 346 0044 F8BD     		pop	{r3, r4, r5, r6, r7, pc}
 347              		.cfi_endproc
 348              	.LFE122:
 349              		.size	canTransmit, .-canTransmit
 350 0046 00BFAFF3 		.section	.text.canReceive,"ax",%progbits
 350      0080AFF3 
 350      0080
 351              		.align	2
 352              		.p2align 4,,15
 353              		.global	canReceive
 354              		.thumb
 355              		.thumb_func
 356              		.type	canReceive, %function
 357              	canReceive:
 358              	.LFB123:
 359              		.loc 1 203 0
 360              		.cfi_startproc
 361              		@ args = 0, pretend = 0, frame = 0
 362              		@ frame_needed = 0, uses_anonymous_args = 0
 363              	.LVL26:
 364 0000 F8B5     		push	{r3, r4, r5, r6, r7, lr}
 365              	.LCFI4:
 366              		.cfi_def_cfa_offset 24
 367              		.cfi_offset 14, -4
 368              		.cfi_offset 7, -8
 369              		.cfi_offset 6, -12
 370              		.cfi_offset 5, -16
 371              		.cfi_offset 4, -20
 372              		.cfi_offset 3, -24
 373              		.loc 1 203 0
 374 0002 0446     		mov	r4, r0
 375 0004 0D46     		mov	r5, r1
 376 0006 1646     		mov	r6, r2
 377              	.LBB12:
 378              		.loc 1 207 0
 379 0008 2023     		movs	r3, #32
 380              	.LVL27:
 381              	@ 207 "../../os/hal/src/can.c" 1
 382 000a 83F31188 		msr     BASEPRI, r3
 383              	@ 0 "" 2
 384              	.LVL28:
 385              		.thumb
 386              	.LBE12:
 387              	.LBB13:
 388              		.loc 1 211 0
 389 000e 00F11407 		add	r7, r0, #20
ARM GAS  /tmp/ccSOTBKW.s 			page 8


 390              	.LVL29:
 391              	.L19:
 392              	.LBE13:
 393              		.loc 1 210 0 discriminator 1
 394 0012 2378     		ldrb	r3, [r4, #0]	@ zero_extendqisi2
 395              	.LVL30:
 396 0014 042B     		cmp	r3, #4
 397 0016 2046     		mov	r0, r4
 398 0018 02D0     		beq	.L21
 399              		.loc 1 210 0 is_stmt 0 discriminator 2
 400 001a FFF7FEFF 		bl	can_lld_can_receive
 401 001e 48B9     		cbnz	r0, .L23
 402              	.L21:
 403              	.LBB15:
 404              		.loc 1 211 0 is_stmt 1
 405 0020 3846     		mov	r0, r7
 406 0022 3146     		mov	r1, r6
 407 0024 FFF7FEFF 		bl	chSemWaitTimeoutS
 408              	.LVL31:
 409              		.loc 1 212 0
 410 0028 0028     		cmp	r0, #0
 411 002a F2D0     		beq	.L19
 412              	.LBB14:
 413              		.loc 1 213 0
 414 002c 0023     		movs	r3, #0
 415              	.LVL32:
 416              	@ 213 "../../os/hal/src/can.c" 1
 417 002e 83F31188 		msr     BASEPRI, r3
 418              	@ 0 "" 2
 419              	.LVL33:
 420              		.thumb
 421              	.LBE14:
 422              		.loc 1 214 0
 423 0032 F8BD     		pop	{r3, r4, r5, r6, r7, pc}
 424              	.LVL34:
 425              	.L23:
 426              	.LBE15:
 427              		.loc 1 217 0
 428 0034 2046     		mov	r0, r4
 429 0036 2946     		mov	r1, r5
 430 0038 FFF7FEFF 		bl	can_lld_receive
 431              	.LBB16:
 432              		.loc 1 218 0
 433 003c 0023     		movs	r3, #0
 434              	.LVL35:
 435              	@ 218 "../../os/hal/src/can.c" 1
 436 003e 83F31188 		msr     BASEPRI, r3
 437              	@ 0 "" 2
 438              	.LVL36:
 439              		.thumb
 440              	.LBE16:
 441              		.loc 1 219 0
 442 0042 1846     		mov	r0, r3
 443              		.loc 1 220 0
 444 0044 F8BD     		pop	{r3, r4, r5, r6, r7, pc}
 445              		.cfi_endproc
 446              	.LFE123:
ARM GAS  /tmp/ccSOTBKW.s 			page 9


 447              		.size	canReceive, .-canReceive
 448 0046 00BFAFF3 		.section	.text.canGetAndClearFlags,"ax",%progbits
 448      0080AFF3 
 448      0080
 449              		.align	2
 450              		.p2align 4,,15
 451              		.global	canGetAndClearFlags
 452              		.thumb
 453              		.thumb_func
 454              		.type	canGetAndClearFlags, %function
 455              	canGetAndClearFlags:
 456              	.LFB124:
 457              		.loc 1 230 0
 458              		.cfi_startproc
 459              		@ args = 0, pretend = 0, frame = 0
 460              		@ frame_needed = 0, uses_anonymous_args = 0
 461              		@ link register save eliminated.
 462              	.LVL37:
 463              		.loc 1 230 0
 464 0000 0246     		mov	r2, r0
 465              	.LBB17:
 466              		.loc 1 233 0
 467 0002 2023     		movs	r3, #32
 468              	.LVL38:
 469              	@ 233 "../../os/hal/src/can.c" 1
 470 0004 83F31188 		msr     BASEPRI, r3
 471              	@ 0 "" 2
 472              	.LVL39:
 473              		.thumb
 474              	.LBE17:
 475              		.loc 1 235 0
 476 0008 0023     		movs	r3, #0
 477              	.LVL40:
 478              		.loc 1 234 0
 479 000a C06A     		ldr	r0, [r0, #44]
 480              	.LVL41:
 481              		.loc 1 235 0
 482 000c D362     		str	r3, [r2, #44]
 483              	.LBB18:
 484              		.loc 1 236 0
 485              	@ 236 "../../os/hal/src/can.c" 1
 486 000e 83F31188 		msr     BASEPRI, r3
 487              	@ 0 "" 2
 488              	.LVL42:
 489              		.thumb
 490              	.LBE18:
 491              		.loc 1 238 0
 492 0012 7047     		bx	lr
 493              		.cfi_endproc
 494              	.LFE124:
 495              		.size	canGetAndClearFlags, .-canGetAndClearFlags
 496 0014 AFF30080 		.section	.text.canSleep,"ax",%progbits
 496      AFF30080 
 496      AFF30080 
 497              		.align	2
 498              		.p2align 4,,15
 499              		.global	canSleep
ARM GAS  /tmp/ccSOTBKW.s 			page 10


 500              		.thumb
 501              		.thumb_func
 502              		.type	canSleep, %function
 503              	canSleep:
 504              	.LFB125:
 505              		.loc 1 253 0
 506              		.cfi_startproc
 507              		@ args = 0, pretend = 0, frame = 0
 508              		@ frame_needed = 0, uses_anonymous_args = 0
 509              	.LVL43:
 510 0000 10B5     		push	{r4, lr}
 511              	.LCFI5:
 512              		.cfi_def_cfa_offset 8
 513              		.cfi_offset 14, -4
 514              		.cfi_offset 4, -8
 515              	.LBB19:
 516              		.loc 1 257 0
 517 0002 2023     		movs	r3, #32
 518              	.LVL44:
 519              	.LBE19:
 520              		.loc 1 253 0
 521 0004 0446     		mov	r4, r0
 522              	.LBB20:
 523              		.loc 1 257 0
 524              	@ 257 "../../os/hal/src/can.c" 1
 525 0006 83F31188 		msr     BASEPRI, r3
 526              	@ 0 "" 2
 527              	.LVL45:
 528              		.thumb
 529              	.LBE20:
 530              		.loc 1 260 0
 531 000a 0378     		ldrb	r3, [r0, #0]	@ zero_extendqisi2
 532              	.LVL46:
 533 000c 032B     		cmp	r3, #3
 534 000e 03D0     		beq	.L27
 535              	.LVL47:
 536              	.L26:
 537              	.LBB21:
 538              		.loc 1 266 0
 539 0010 0023     		movs	r3, #0
 540              	.LVL48:
 541              	@ 266 "../../os/hal/src/can.c" 1
 542 0012 83F31188 		msr     BASEPRI, r3
 543              	@ 0 "" 2
 544              	.LVL49:
 545              		.thumb
 546              	.LBE21:
 547              		.loc 1 267 0
 548 0016 10BD     		pop	{r4, pc}
 549              	.LVL50:
 550              	.L27:
 551              		.loc 1 261 0
 552 0018 FFF7FEFF 		bl	can_lld_sleep
 553              		.loc 1 262 0
 554 001c 2046     		mov	r0, r4
 555 001e 0423     		movs	r3, #4
 556 0020 00F8303B 		strb	r3, [r0], #48
ARM GAS  /tmp/ccSOTBKW.s 			page 11


 557              		.loc 1 263 0
 558 0024 0021     		movs	r1, #0
 559 0026 FFF7FEFF 		bl	chEvtBroadcastFlagsI
 560              		.loc 1 264 0
 561 002a FFF7FEFF 		bl	chSchRescheduleS
 562 002e EFE7     		b	.L26
 563              		.cfi_endproc
 564              	.LFE125:
 565              		.size	canSleep, .-canSleep
 566              		.section	.text.canWakeup,"ax",%progbits
 567              		.align	2
 568              		.p2align 4,,15
 569              		.global	canWakeup
 570              		.thumb
 571              		.thumb_func
 572              		.type	canWakeup, %function
 573              	canWakeup:
 574              	.LFB126:
 575              		.loc 1 276 0
 576              		.cfi_startproc
 577              		@ args = 0, pretend = 0, frame = 0
 578              		@ frame_needed = 0, uses_anonymous_args = 0
 579              	.LVL51:
 580 0000 10B5     		push	{r4, lr}
 581              	.LCFI6:
 582              		.cfi_def_cfa_offset 8
 583              		.cfi_offset 14, -4
 584              		.cfi_offset 4, -8
 585              	.LBB22:
 586              		.loc 1 280 0
 587 0002 2023     		movs	r3, #32
 588              	.LVL52:
 589              	.LBE22:
 590              		.loc 1 276 0
 591 0004 0446     		mov	r4, r0
 592              	.LBB23:
 593              		.loc 1 280 0
 594              	@ 280 "../../os/hal/src/can.c" 1
 595 0006 83F31188 		msr     BASEPRI, r3
 596              	@ 0 "" 2
 597              	.LVL53:
 598              		.thumb
 599              	.LBE23:
 600              		.loc 1 283 0
 601 000a 0378     		ldrb	r3, [r0, #0]	@ zero_extendqisi2
 602              	.LVL54:
 603 000c 042B     		cmp	r3, #4
 604 000e 03D0     		beq	.L30
 605              	.LVL55:
 606              	.L29:
 607              	.LBB24:
 608              		.loc 1 289 0
 609 0010 0023     		movs	r3, #0
 610              	.LVL56:
 611              	@ 289 "../../os/hal/src/can.c" 1
 612 0012 83F31188 		msr     BASEPRI, r3
 613              	@ 0 "" 2
ARM GAS  /tmp/ccSOTBKW.s 			page 12


 614              	.LVL57:
 615              		.thumb
 616              	.LBE24:
 617              		.loc 1 290 0
 618 0016 10BD     		pop	{r4, pc}
 619              	.LVL58:
 620              	.L30:
 621              		.loc 1 284 0
 622 0018 FFF7FEFF 		bl	can_lld_wakeup
 623              		.loc 1 285 0
 624 001c 2046     		mov	r0, r4
 625 001e 0323     		movs	r3, #3
 626 0020 00F8343B 		strb	r3, [r0], #52
 627              		.loc 1 286 0
 628 0024 0021     		movs	r1, #0
 629 0026 FFF7FEFF 		bl	chEvtBroadcastFlagsI
 630              		.loc 1 287 0
 631 002a FFF7FEFF 		bl	chSchRescheduleS
 632 002e EFE7     		b	.L29
 633              		.cfi_endproc
 634              	.LFE126:
 635              		.size	canWakeup, .-canWakeup
 636              		.text
 637              	.Letext0:
 638              		.file 2 "/home/craig/gcc/arm/lib/gcc/arm-none-eabi/4.6.2/../../../../arm-none-eabi/include/stdint.
 639              		.file 3 "../../os/ports/GCC/ARMCMx/chtypes.h"
 640              		.file 4 "../../os/kernel/include/chlists.h"
 641              		.file 5 "../../os/kernel/include/chthreads.h"
 642              		.file 6 "../../os/ports/GCC/ARMCMx/chcore_v7m.h"
 643              		.file 7 "../../os/kernel/include/chsem.h"
 644              		.file 8 "../../os/kernel/include/chmtx.h"
 645              		.file 9 "../../os/kernel/include/chevents.h"
 646              		.file 10 "../../os/hal/platforms/STM32F4xx/stm32f4xx.h"
 647              		.file 11 "../../os/hal/include/can.h"
 648              		.file 12 "../../os/hal/platforms/STM32/can_lld.h"
 649              		.file 13 "../../os/ports/common/ARMCMx/CMSIS/include/core_cm4.h"