ARM GAS  /tmp/ccYzO4V0.s 			page 1


   1              		.syntax unified
   2              		.cpu cortex-m4
   3              		.fpu softvfp
   4              		.eabi_attribute 20, 1
   5              		.eabi_attribute 21, 1
   6              		.eabi_attribute 23, 3
   7              		.eabi_attribute 24, 1
   8              		.eabi_attribute 25, 1
   9              		.eabi_attribute 26, 1
  10              		.eabi_attribute 30, 2
  11              		.eabi_attribute 18, 4
  12              		.thumb
  13              		.file	"chevents.c"
  14              		.text
  15              	.Ltext0:
  16              		.cfi_sections	.debug_frame
  17              		.section	.text.chEvtRegisterMask,"ax",%progbits
  18              		.align	2
  19              		.p2align 4,,15
  20              		.global	chEvtRegisterMask
  21              		.thumb
  22              		.thumb_func
  23              		.type	chEvtRegisterMask, %function
  24              	chEvtRegisterMask:
  25              	.LFB7:
  26              		.file 1 "../../os/kernel/src/chevents.c"
  27              		.loc 1 75 0
  28              		.cfi_startproc
  29              		@ args = 0, pretend = 0, frame = 0
  30              		@ frame_needed = 0, uses_anonymous_args = 0
  31              		@ link register save eliminated.
  32              	.LVL0:
  33 0000 30B4     		push	{r4, r5}
  34              	.LCFI0:
  35              		.cfi_def_cfa_offset 8
  36              		.cfi_offset 5, -4
  37              		.cfi_offset 4, -8
  38              	.LBB2:
  39              		.loc 1 79 0
  40 0002 2023     		movs	r3, #32
  41              	.LVL1:
  42              	@ 79 "../../os/kernel/src/chevents.c" 1
  43 0004 83F31188 		msr     BASEPRI, r3
  44              	@ 0 "" 2
  45              	.LVL2:
  46              		.thumb
  47              	.LBE2:
  48              		.loc 1 82 0
  49 0008 40F20003 		movw	r3, #:lower16:rlist
  50              	.LVL3:
  51 000c C0F20003 		movt	r3, #:upper16:rlist
  52              		.loc 1 80 0
  53 0010 0568     		ldr	r5, [r0, #0]
  54              		.loc 1 82 0
  55 0012 9C69     		ldr	r4, [r3, #24]
  56              		.loc 1 80 0
  57 0014 0D60     		str	r5, [r1, #0]
ARM GAS  /tmp/ccYzO4V0.s 			page 2


  58              	.LBB3:
  59              		.loc 1 84 0
  60 0016 0023     		movs	r3, #0
  61              	.LVL4:
  62              	.LBE3:
  63              		.loc 1 81 0
  64 0018 0160     		str	r1, [r0, #0]
  65              		.loc 1 82 0
  66 001a 4C60     		str	r4, [r1, #4]
  67              		.loc 1 83 0
  68 001c 8A60     		str	r2, [r1, #8]
  69              	.LBB4:
  70              		.loc 1 84 0
  71              	@ 84 "../../os/kernel/src/chevents.c" 1
  72 001e 83F31188 		msr     BASEPRI, r3
  73              	@ 0 "" 2
  74              	.LVL5:
  75              		.thumb
  76              	.LBE4:
  77              		.loc 1 85 0
  78 0022 30BC     		pop	{r4, r5}
  79 0024 7047     		bx	lr
  80              		.cfi_endproc
  81              	.LFE7:
  82              		.size	chEvtRegisterMask, .-chEvtRegisterMask
  83 0026 00BFAFF3 		.section	.text.chEvtUnregister,"ax",%progbits
  83      0080AFF3 
  83      0080
  84              		.align	2
  85              		.p2align 4,,15
  86              		.global	chEvtUnregister
  87              		.thumb
  88              		.thumb_func
  89              		.type	chEvtUnregister, %function
  90              	chEvtUnregister:
  91              	.LFB8:
  92              		.loc 1 100 0
  93              		.cfi_startproc
  94              		@ args = 0, pretend = 0, frame = 0
  95              		@ frame_needed = 0, uses_anonymous_args = 0
  96              		@ link register save eliminated.
  97              	.LVL6:
  98              	.LBB5:
  99              		.loc 1 106 0
 100 0000 2023     		movs	r3, #32
 101              	.LVL7:
 102              	@ 106 "../../os/kernel/src/chevents.c" 1
 103 0002 83F31188 		msr     BASEPRI, r3
 104              	@ 0 "" 2
 105              	.LVL8:
 106              		.thumb
 107              	.LBE5:
 108              		.loc 1 105 0
 109 0006 0246     		mov	r2, r0
 110              		.loc 1 107 0
 111 0008 02E0     		b	.L3
 112              	.LVL9:
ARM GAS  /tmp/ccYzO4V0.s 			page 3


 113              	.L5:
 114              		.loc 1 108 0
 115 000a 9942     		cmp	r1, r3
 116 000c 07D0     		beq	.L8
 117 000e 1A46     		mov	r2, r3
 118              	.LVL10:
 119              	.L3:
 120              		.loc 1 107 0 discriminator 1
 121 0010 1368     		ldr	r3, [r2, #0]
 122              	.LVL11:
 123 0012 8342     		cmp	r3, r0
 124 0014 F9D1     		bne	.L5
 125              	.L4:
 126              	.LBB6:
 127              		.loc 1 114 0
 128 0016 0023     		movs	r3, #0
 129              	.LVL12:
 130              	@ 114 "../../os/kernel/src/chevents.c" 1
 131 0018 83F31188 		msr     BASEPRI, r3
 132              	@ 0 "" 2
 133              	.LVL13:
 134              		.thumb
 135              	.LBE6:
 136              		.loc 1 115 0
 137 001c 7047     		bx	lr
 138              	.LVL14:
 139              	.L8:
 140              		.loc 1 109 0
 141 001e 0B68     		ldr	r3, [r1, #0]
 142 0020 1360     		str	r3, [r2, #0]
 143              		.loc 1 110 0
 144 0022 F8E7     		b	.L4
 145              		.cfi_endproc
 146              	.LFE8:
 147              		.size	chEvtUnregister, .-chEvtUnregister
 148 0024 AFF30080 		.section	.text.chEvtClearFlags,"ax",%progbits
 148      AFF30080 
 148      AFF30080 
 149              		.align	2
 150              		.p2align 4,,15
 151              		.global	chEvtClearFlags
 152              		.thumb
 153              		.thumb_func
 154              		.type	chEvtClearFlags, %function
 155              	chEvtClearFlags:
 156              	.LFB9:
 157              		.loc 1 125 0
 158              		.cfi_startproc
 159              		@ args = 0, pretend = 0, frame = 0
 160              		@ frame_needed = 0, uses_anonymous_args = 0
 161              		@ link register save eliminated.
 162              	.LVL15:
 163 0000 10B4     		push	{r4}
 164              	.LCFI1:
 165              		.cfi_def_cfa_offset 4
 166              		.cfi_offset 4, -4
 167              	.LBB7:
ARM GAS  /tmp/ccYzO4V0.s 			page 4


 168              		.loc 1 128 0
 169 0002 2023     		movs	r3, #32
 170              	.LVL16:
 171              	@ 128 "../../os/kernel/src/chevents.c" 1
 172 0004 83F31188 		msr     BASEPRI, r3
 173              	@ 0 "" 2
 174              	.LVL17:
 175              		.thumb
 176              	.LBE7:
 177              		.loc 1 130 0
 178 0008 40F20002 		movw	r2, #:lower16:rlist
 179 000c C0F20002 		movt	r2, #:upper16:rlist
 180              	.LBB8:
 181              		.loc 1 133 0
 182 0010 0023     		movs	r3, #0
 183              	.LVL18:
 184              	.LBE8:
 185              		.loc 1 130 0
 186 0012 9169     		ldr	r1, [r2, #24]
 187 0014 8A6B     		ldr	r2, [r1, #56]
 188              	.LVL19:
 189              		.loc 1 131 0
 190 0016 22EA0004 		bic	r4, r2, r0
 191 001a 8C63     		str	r4, [r1, #56]
 192              	.LBB9:
 193              		.loc 1 133 0
 194              	@ 133 "../../os/kernel/src/chevents.c" 1
 195 001c 83F31188 		msr     BASEPRI, r3
 196              	@ 0 "" 2
 197              	.LVL20:
 198              		.thumb
 199              	.LBE9:
 200              		.loc 1 135 0
 201 0020 1040     		ands	r0, r0, r2
 202              	.LVL21:
 203 0022 10BC     		pop	{r4}
 204 0024 7047     		bx	lr
 205              		.cfi_endproc
 206              	.LFE9:
 207              		.size	chEvtClearFlags, .-chEvtClearFlags
 208 0026 00BFAFF3 		.section	.text.chEvtAddFlags,"ax",%progbits
 208      0080AFF3 
 208      0080
 209              		.align	2
 210              		.p2align 4,,15
 211              		.global	chEvtAddFlags
 212              		.thumb
 213              		.thumb_func
 214              		.type	chEvtAddFlags, %function
 215              	chEvtAddFlags:
 216              	.LFB10:
 217              		.loc 1 146 0
 218              		.cfi_startproc
 219              		@ args = 0, pretend = 0, frame = 0
 220              		@ frame_needed = 0, uses_anonymous_args = 0
 221              		@ link register save eliminated.
 222              	.LVL22:
ARM GAS  /tmp/ccYzO4V0.s 			page 5


 223              	.LBB10:
 224              		.loc 1 148 0
 225 0000 2023     		movs	r3, #32
 226              	.LVL23:
 227              	@ 148 "../../os/kernel/src/chevents.c" 1
 228 0002 83F31188 		msr     BASEPRI, r3
 229              	@ 0 "" 2
 230              	.LVL24:
 231              		.thumb
 232              	.LBE10:
 233              		.loc 1 150 0
 234 0006 40F20002 		movw	r2, #:lower16:rlist
 235 000a C0F20002 		movt	r2, #:upper16:rlist
 236              	.LBB11:
 237              		.loc 1 152 0
 238 000e 0023     		movs	r3, #0
 239              	.LVL25:
 240              	.LBE11:
 241              		.loc 1 150 0
 242 0010 9269     		ldr	r2, [r2, #24]
 243 0012 916B     		ldr	r1, [r2, #56]
 244 0014 0843     		orrs	r0, r0, r1
 245              	.LVL26:
 246 0016 9063     		str	r0, [r2, #56]
 247              	.LVL27:
 248              	.LBB12:
 249              		.loc 1 152 0
 250              	@ 152 "../../os/kernel/src/chevents.c" 1
 251 0018 83F31188 		msr     BASEPRI, r3
 252              	@ 0 "" 2
 253              	.LVL28:
 254              		.thumb
 255              	.LBE12:
 256              		.loc 1 154 0
 257 001c 7047     		bx	lr
 258              		.cfi_endproc
 259              	.LFE10:
 260              		.size	chEvtAddFlags, .-chEvtAddFlags
 261 001e 00BF     		.section	.text.chEvtSignalFlagsI,"ax",%progbits
 262              		.align	2
 263              		.p2align 4,,15
 264              		.global	chEvtSignalFlagsI
 265              		.thumb
 266              		.thumb_func
 267              		.type	chEvtSignalFlagsI, %function
 268              	chEvtSignalFlagsI:
 269              	.LFB12:
 270              		.loc 1 186 0
 271              		.cfi_startproc
 272              		@ args = 0, pretend = 0, frame = 0
 273              		@ frame_needed = 0, uses_anonymous_args = 0
 274              	.LVL29:
 275 0000 08B5     		push	{r3, lr}
 276              	.LCFI2:
 277              		.cfi_def_cfa_offset 8
 278              		.cfi_offset 14, -4
 279              		.cfi_offset 3, -8
ARM GAS  /tmp/ccYzO4V0.s 			page 6


 280              		.loc 1 191 0
 281 0002 826B     		ldr	r2, [r0, #56]
 282              		.loc 1 193 0
 283 0004 037F     		ldrb	r3, [r0, #28]	@ zero_extendqisi2
 284              		.loc 1 191 0
 285 0006 0A43     		orrs	r2, r2, r1
 286              		.loc 1 193 0
 287 0008 082B     		cmp	r3, #8
 288              		.loc 1 191 0
 289 000a 8263     		str	r2, [r0, #56]
 290              		.loc 1 193 0
 291 000c 0BD0     		beq	.L15
 292              		.loc 1 194 0
 293 000e 092B     		cmp	r3, #9
 294 0010 00D0     		beq	.L16
 295              	.L11:
 296 0012 08BD     		pop	{r3, pc}
 297              	.L16:
 298              		.loc 1 196 0
 299 0014 436A     		ldr	r3, [r0, #36]
 300 0016 1A40     		ands	r2, r2, r3
 301              		.loc 1 195 0
 302 0018 9342     		cmp	r3, r2
 303 001a FAD1     		bne	.L11
 304              	.L13:
 305              	.LVL30:
 306              	.LBB15:
 307              	.LBB16:
 308              		.loc 1 197 0
 309 001c FFF7FEFF 		bl	chSchReadyI
 310              	.LVL31:
 311 0020 0023     		movs	r3, #0
 312 0022 4362     		str	r3, [r0, #36]
 313 0024 08BD     		pop	{r3, pc}
 314              	.LVL32:
 315              	.L15:
 316              	.LBE16:
 317              	.LBE15:
 318              		.loc 1 194 0 discriminator 1
 319 0026 436A     		ldr	r3, [r0, #36]
 320              		.loc 1 193 0 discriminator 1
 321 0028 1A42     		tst	r2, r3
 322 002a F7D1     		bne	.L13
 323 002c 08BD     		pop	{r3, pc}
 324              		.cfi_endproc
 325              	.LFE12:
 326              		.size	chEvtSignalFlagsI, .-chEvtSignalFlagsI
 327 002e 00BF     		.section	.text.chEvtSignalFlags,"ax",%progbits
 328              		.align	2
 329              		.p2align 4,,15
 330              		.global	chEvtSignalFlags
 331              		.thumb
 332              		.thumb_func
 333              		.type	chEvtSignalFlags, %function
 334              	chEvtSignalFlags:
 335              	.LFB11:
 336              		.loc 1 164 0
ARM GAS  /tmp/ccYzO4V0.s 			page 7


 337              		.cfi_startproc
 338              		@ args = 0, pretend = 0, frame = 0
 339              		@ frame_needed = 0, uses_anonymous_args = 0
 340              	.LVL33:
 341 0000 08B5     		push	{r3, lr}
 342              	.LCFI3:
 343              		.cfi_def_cfa_offset 8
 344              		.cfi_offset 14, -4
 345              		.cfi_offset 3, -8
 346              	.LBB17:
 347              		.loc 1 168 0
 348 0002 2023     		movs	r3, #32
 349              	.LVL34:
 350              	@ 168 "../../os/kernel/src/chevents.c" 1
 351 0004 83F31188 		msr     BASEPRI, r3
 352              	@ 0 "" 2
 353              	.LVL35:
 354              		.thumb
 355              	.LBE17:
 356              		.loc 1 169 0
 357 0008 FFF7FEFF 		bl	chEvtSignalFlagsI
 358              	.LVL36:
 359              		.loc 1 170 0
 360 000c FFF7FEFF 		bl	chSchRescheduleS
 361              	.LBB18:
 362              		.loc 1 171 0
 363 0010 0023     		movs	r3, #0
 364              	.LVL37:
 365              	@ 171 "../../os/kernel/src/chevents.c" 1
 366 0012 83F31188 		msr     BASEPRI, r3
 367              	@ 0 "" 2
 368              	.LVL38:
 369              		.thumb
 370              	.LBE18:
 371              		.loc 1 172 0
 372 0016 08BD     		pop	{r3, pc}
 373              		.cfi_endproc
 374              	.LFE11:
 375              		.size	chEvtSignalFlags, .-chEvtSignalFlags
 376 0018 AFF30080 		.section	.text.chEvtBroadcastFlagsI,"ax",%progbits
 376      AFF30080 
 377              		.align	2
 378              		.p2align 4,,15
 379              		.global	chEvtBroadcastFlagsI
 380              		.thumb
 381              		.thumb_func
 382              		.type	chEvtBroadcastFlagsI, %function
 383              	chEvtBroadcastFlagsI:
 384              	.LFB14:
 385              		.loc 1 238 0
 386              		.cfi_startproc
 387              		@ args = 0, pretend = 0, frame = 0
 388              		@ frame_needed = 0, uses_anonymous_args = 0
 389              	.LVL39:
 390 0000 70B5     		push	{r4, r5, r6, lr}
 391              	.LCFI4:
 392              		.cfi_def_cfa_offset 16
ARM GAS  /tmp/ccYzO4V0.s 			page 8


 393              		.cfi_offset 14, -4
 394              		.cfi_offset 6, -8
 395              		.cfi_offset 5, -12
 396              		.cfi_offset 4, -16
 397              		.loc 1 244 0
 398 0002 0468     		ldr	r4, [r0, #0]
 399              	.LVL40:
 400              		.loc 1 245 0
 401 0004 A042     		cmp	r0, r4
 402              		.loc 1 238 0
 403 0006 0546     		mov	r5, r0
 404 0008 0E46     		mov	r6, r1
 405              		.loc 1 245 0
 406 000a 07D0     		beq	.L18
 407              	.LVL41:
 408              	.L21:
 409              		.loc 1 246 0
 410 000c A168     		ldr	r1, [r4, #8]
 411 000e 6068     		ldr	r0, [r4, #4]
 412 0010 3143     		orrs	r1, r1, r6
 413 0012 FFF7FEFF 		bl	chEvtSignalFlagsI
 414              		.loc 1 247 0
 415 0016 2468     		ldr	r4, [r4, #0]
 416              	.LVL42:
 417              		.loc 1 245 0
 418 0018 A542     		cmp	r5, r4
 419 001a F7D1     		bne	.L21
 420              	.L18:
 421 001c 70BD     		pop	{r4, r5, r6, pc}
 422              		.cfi_endproc
 423              	.LFE14:
 424              		.size	chEvtBroadcastFlagsI, .-chEvtBroadcastFlagsI
 425              		.section	.text.chEvtBroadcastFlags,"ax",%progbits
 426              		.align	2
 427              		.p2align 4,,15
 428              		.global	chEvtBroadcastFlags
 429              		.thumb
 430              		.thumb_func
 431              		.type	chEvtBroadcastFlags, %function
 432              	chEvtBroadcastFlags:
 433              	.LFB13:
 434              		.loc 1 213 0
 435              		.cfi_startproc
 436              		@ args = 0, pretend = 0, frame = 0
 437              		@ frame_needed = 0, uses_anonymous_args = 0
 438              	.LVL43:
 439 0000 08B5     		push	{r3, lr}
 440              	.LCFI5:
 441              		.cfi_def_cfa_offset 8
 442              		.cfi_offset 14, -4
 443              		.cfi_offset 3, -8
 444              	.LBB19:
 445              		.loc 1 215 0
 446 0002 2023     		movs	r3, #32
 447              	.LVL44:
 448              	@ 215 "../../os/kernel/src/chevents.c" 1
 449 0004 83F31188 		msr     BASEPRI, r3
ARM GAS  /tmp/ccYzO4V0.s 			page 9


 450              	@ 0 "" 2
 451              	.LVL45:
 452              		.thumb
 453              	.LBE19:
 454              		.loc 1 216 0
 455 0008 FFF7FEFF 		bl	chEvtBroadcastFlagsI
 456              	.LVL46:
 457              		.loc 1 217 0
 458 000c FFF7FEFF 		bl	chSchRescheduleS
 459              	.LBB20:
 460              		.loc 1 218 0
 461 0010 0023     		movs	r3, #0
 462              	.LVL47:
 463              	@ 218 "../../os/kernel/src/chevents.c" 1
 464 0012 83F31188 		msr     BASEPRI, r3
 465              	@ 0 "" 2
 466              	.LVL48:
 467              		.thumb
 468              	.LBE20:
 469              		.loc 1 219 0
 470 0016 08BD     		pop	{r3, pc}
 471              		.cfi_endproc
 472              	.LFE13:
 473              		.size	chEvtBroadcastFlags, .-chEvtBroadcastFlags
 474 0018 AFF30080 		.section	.text.chEvtDispatch,"ax",%progbits
 474      AFF30080 
 475              		.align	2
 476              		.p2align 4,,15
 477              		.global	chEvtDispatch
 478              		.thumb
 479              		.thumb_func
 480              		.type	chEvtDispatch, %function
 481              	chEvtDispatch:
 482              	.LFB15:
 483              		.loc 1 260 0
 484              		.cfi_startproc
 485              		@ args = 0, pretend = 0, frame = 0
 486              		@ frame_needed = 0, uses_anonymous_args = 0
 487              	.LVL49:
 488 0000 F8B5     		push	{r3, r4, r5, r6, r7, lr}
 489              	.LCFI6:
 490              		.cfi_def_cfa_offset 24
 491              		.cfi_offset 14, -4
 492              		.cfi_offset 7, -8
 493              		.cfi_offset 6, -12
 494              		.cfi_offset 5, -16
 495              		.cfi_offset 4, -20
 496              		.cfi_offset 3, -24
 497              		.loc 1 266 0
 498 0002 0D46     		mov	r5, r1
 499              		.loc 1 260 0
 500 0004 0746     		mov	r7, r0
 501              		.loc 1 266 0
 502 0006 89B1     		cbz	r1, .L24
 503 0008 0024     		movs	r4, #0
 504              		.loc 1 267 0
 505 000a 0126     		movs	r6, #1
ARM GAS  /tmp/ccYzO4V0.s 			page 10


 506 000c 01E0     		b	.L27
 507              	.LVL50:
 508              	.L26:
 509              		.loc 1 274 0
 510 000e 0134     		adds	r4, r4, #1
 511              	.LVL51:
 512              		.loc 1 266 0
 513 0010 65B1     		cbz	r5, .L24
 514              	.LVL52:
 515              	.L27:
 516              		.loc 1 267 0
 517 0012 16FA04F3 		lsls	r3, r6, r4
 518 0016 2B42     		tst	r3, r5
 519 0018 F9D0     		beq	.L26
 520              		.loc 1 272 0
 521 001a 57F82420 		ldr	r2, [r7, r4, lsl #2]
 522 001e 2046     		mov	r0, r4
 523              		.loc 1 271 0
 524 0020 25EA0305 		bic	r5, r5, r3
 525              	.LVL53:
 526              		.loc 1 274 0
 527 0024 0134     		adds	r4, r4, #1
 528              		.loc 1 272 0
 529 0026 9047     		blx	r2
 530              	.LVL54:
 531              		.loc 1 266 0
 532 0028 002D     		cmp	r5, #0
 533 002a F2D1     		bne	.L27
 534              	.LVL55:
 535              	.L24:
 536 002c F8BD     		pop	{r3, r4, r5, r6, r7, pc}
 537              		.cfi_endproc
 538              	.LFE15:
 539              		.size	chEvtDispatch, .-chEvtDispatch
 540 002e 00BF     		.section	.text.chEvtWaitOne,"ax",%progbits
 541              		.align	2
 542              		.p2align 4,,15
 543              		.global	chEvtWaitOne
 544              		.thumb
 545              		.thumb_func
 546              		.type	chEvtWaitOne, %function
 547              	chEvtWaitOne:
 548              	.LFB16:
 549              		.loc 1 295 0
 550              		.cfi_startproc
 551              		@ args = 0, pretend = 0, frame = 0
 552              		@ frame_needed = 0, uses_anonymous_args = 0
 553              	.LVL56:
 554 0000 38B5     		push	{r3, r4, r5, lr}
 555              	.LCFI7:
 556              		.cfi_def_cfa_offset 16
 557              		.cfi_offset 14, -4
 558              		.cfi_offset 5, -8
 559              		.cfi_offset 4, -12
 560              		.cfi_offset 3, -16
 561              		.loc 1 296 0
 562 0002 0D4B     		ldr	r3, .L31
ARM GAS  /tmp/ccYzO4V0.s 			page 11


 563              		.loc 1 295 0
 564 0004 0546     		mov	r5, r0
 565              		.loc 1 296 0
 566 0006 9C69     		ldr	r4, [r3, #24]
 567              	.LVL57:
 568              	.LBB21:
 569              		.loc 1 299 0
 570 0008 2023     		movs	r3, #32
 571              	.LVL58:
 572              	@ 299 "../../os/kernel/src/chevents.c" 1
 573 000a 83F31188 		msr     BASEPRI, r3
 574              	@ 0 "" 2
 575              	.LVL59:
 576              		.thumb
 577              	.LBE21:
 578              		.loc 1 301 0
 579 000e A36B     		ldr	r3, [r4, #56]
 580              	.LVL60:
 581 0010 10EA0302 		ands	r2, r0, r3
 582 0014 06D1     		bne	.L30
 583              		.loc 1 302 0
 584 0016 6062     		str	r0, [r4, #36]
 585              		.loc 1 303 0
 586 0018 0820     		movs	r0, #8
 587              	.LVL61:
 588 001a FFF7FEFF 		bl	chSchGoSleepS
 589              	.LVL62:
 590              		.loc 1 304 0
 591 001e A36B     		ldr	r3, [r4, #56]
 592 0020 05EA0302 		and	r2, r5, r3
 593              	.LVL63:
 594              	.L30:
 595              		.loc 1 306 0
 596 0024 5042     		negs	r0, r2
 597 0026 1040     		ands	r0, r0, r2
 598              	.LVL64:
 599              		.loc 1 307 0
 600 0028 23EA0003 		bic	r3, r3, r0
 601 002c A363     		str	r3, [r4, #56]
 602              	.LBB22:
 603              		.loc 1 309 0
 604 002e 0023     		movs	r3, #0
 605              	.LVL65:
 606              	@ 309 "../../os/kernel/src/chevents.c" 1
 607 0030 83F31188 		msr     BASEPRI, r3
 608              	@ 0 "" 2
 609              	.LVL66:
 610              		.thumb
 611              	.LBE22:
 612              		.loc 1 311 0
 613 0034 38BD     		pop	{r3, r4, r5, pc}
 614              	.L32:
 615 0036 00BF     		.align	2
 616              	.L31:
 617 0038 00000000 		.word	rlist
 618              		.cfi_endproc
 619              	.LFE16:
ARM GAS  /tmp/ccYzO4V0.s 			page 12


 620              		.size	chEvtWaitOne, .-chEvtWaitOne
 621 003c AFF30080 		.section	.text.chEvtWaitAny,"ax",%progbits
 622              		.align	2
 623              		.p2align 4,,15
 624              		.global	chEvtWaitAny
 625              		.thumb
 626              		.thumb_func
 627              		.type	chEvtWaitAny, %function
 628              	chEvtWaitAny:
 629              	.LFB17:
 630              		.loc 1 324 0
 631              		.cfi_startproc
 632              		@ args = 0, pretend = 0, frame = 0
 633              		@ frame_needed = 0, uses_anonymous_args = 0
 634              	.LVL67:
 635 0000 38B5     		push	{r3, r4, r5, lr}
 636              	.LCFI8:
 637              		.cfi_def_cfa_offset 16
 638              		.cfi_offset 14, -4
 639              		.cfi_offset 5, -8
 640              		.cfi_offset 4, -12
 641              		.cfi_offset 3, -16
 642              		.loc 1 325 0
 643 0002 0B4B     		ldr	r3, .L35
 644              		.loc 1 324 0
 645 0004 0546     		mov	r5, r0
 646              		.loc 1 325 0
 647 0006 9C69     		ldr	r4, [r3, #24]
 648              	.LVL68:
 649              	.LBB23:
 650              		.loc 1 328 0
 651 0008 2023     		movs	r3, #32
 652              	.LVL69:
 653              	@ 328 "../../os/kernel/src/chevents.c" 1
 654 000a 83F31188 		msr     BASEPRI, r3
 655              	@ 0 "" 2
 656              	.LVL70:
 657              		.thumb
 658              	.LBE23:
 659              		.loc 1 330 0
 660 000e A36B     		ldr	r3, [r4, #56]
 661              	.LVL71:
 662 0010 1840     		ands	r0, r0, r3
 663              	.LVL72:
 664 0012 06D1     		bne	.L34
 665              		.loc 1 332 0
 666 0014 0820     		movs	r0, #8
 667              		.loc 1 331 0
 668 0016 6562     		str	r5, [r4, #36]
 669              		.loc 1 332 0
 670 0018 FFF7FEFF 		bl	chSchGoSleepS
 671              	.LVL73:
 672              		.loc 1 333 0
 673 001c A36B     		ldr	r3, [r4, #56]
 674 001e 05EA0300 		and	r0, r5, r3
 675              	.LVL74:
 676              	.L34:
ARM GAS  /tmp/ccYzO4V0.s 			page 13


 677              		.loc 1 335 0
 678 0022 23EA0003 		bic	r3, r3, r0
 679 0026 A363     		str	r3, [r4, #56]
 680              	.LBB24:
 681              		.loc 1 337 0
 682 0028 0023     		movs	r3, #0
 683              	.LVL75:
 684              	@ 337 "../../os/kernel/src/chevents.c" 1
 685 002a 83F31188 		msr     BASEPRI, r3
 686              	@ 0 "" 2
 687              	.LVL76:
 688              		.thumb
 689              	.LBE24:
 690              		.loc 1 339 0
 691 002e 38BD     		pop	{r3, r4, r5, pc}
 692              	.L36:
 693              		.align	2
 694              	.L35:
 695 0030 00000000 		.word	rlist
 696              		.cfi_endproc
 697              	.LFE17:
 698              		.size	chEvtWaitAny, .-chEvtWaitAny
 699 0034 AFF30080 		.section	.text.chEvtWaitAll,"ax",%progbits
 699      AFF30080 
 699      AFF30080 
 700              		.align	2
 701              		.p2align 4,,15
 702              		.global	chEvtWaitAll
 703              		.thumb
 704              		.thumb_func
 705              		.type	chEvtWaitAll, %function
 706              	chEvtWaitAll:
 707              	.LFB18:
 708              		.loc 1 352 0
 709              		.cfi_startproc
 710              		@ args = 0, pretend = 0, frame = 0
 711              		@ frame_needed = 0, uses_anonymous_args = 0
 712              	.LVL77:
 713 0000 38B5     		push	{r3, r4, r5, lr}
 714              	.LCFI9:
 715              		.cfi_def_cfa_offset 16
 716              		.cfi_offset 14, -4
 717              		.cfi_offset 5, -8
 718              		.cfi_offset 4, -12
 719              		.cfi_offset 3, -16
 720              		.loc 1 353 0
 721 0002 0C4B     		ldr	r3, .L39
 722              		.loc 1 352 0
 723 0004 0446     		mov	r4, r0
 724              		.loc 1 353 0
 725 0006 9D69     		ldr	r5, [r3, #24]
 726              	.LVL78:
 727              	.LBB25:
 728              		.loc 1 355 0
 729 0008 2023     		movs	r3, #32
 730              	.LVL79:
 731              	@ 355 "../../os/kernel/src/chevents.c" 1
ARM GAS  /tmp/ccYzO4V0.s 			page 14


 732 000a 83F31188 		msr     BASEPRI, r3
 733              	@ 0 "" 2
 734              	.LVL80:
 735              		.thumb
 736              	.LBE25:
 737              		.loc 1 357 0
 738 000e AB6B     		ldr	r3, [r5, #56]
 739              	.LVL81:
 740 0010 00EA0302 		and	r2, r0, r3
 741 0014 8242     		cmp	r2, r0
 742 0016 04D0     		beq	.L38
 743              		.loc 1 358 0
 744 0018 6862     		str	r0, [r5, #36]
 745              		.loc 1 359 0
 746 001a 0920     		movs	r0, #9
 747              	.LVL82:
 748 001c FFF7FEFF 		bl	chSchGoSleepS
 749              	.LVL83:
 750 0020 AB6B     		ldr	r3, [r5, #56]
 751              	.L38:
 752              		.loc 1 361 0
 753 0022 23EA0403 		bic	r3, r3, r4
 754 0026 AB63     		str	r3, [r5, #56]
 755              	.LBB26:
 756              		.loc 1 363 0
 757 0028 0023     		movs	r3, #0
 758              	.LVL84:
 759              	@ 363 "../../os/kernel/src/chevents.c" 1
 760 002a 83F31188 		msr     BASEPRI, r3
 761              	@ 0 "" 2
 762              	.LVL85:
 763              		.thumb
 764              	.LBE26:
 765              		.loc 1 365 0
 766 002e 2046     		mov	r0, r4
 767 0030 38BD     		pop	{r3, r4, r5, pc}
 768              	.L40:
 769 0032 00BF     		.align	2
 770              	.L39:
 771 0034 00000000 		.word	rlist
 772              		.cfi_endproc
 773              	.LFE18:
 774              		.size	chEvtWaitAll, .-chEvtWaitAll
 775 0038 AFF30080 		.section	.text.chEvtWaitOneTimeout,"ax",%progbits
 775      AFF30080 
 776              		.align	2
 777              		.p2align 4,,15
 778              		.global	chEvtWaitOneTimeout
 779              		.thumb
 780              		.thumb_func
 781              		.type	chEvtWaitOneTimeout, %function
 782              	chEvtWaitOneTimeout:
 783              	.LFB19:
 784              		.loc 1 391 0
 785              		.cfi_startproc
 786              		@ args = 0, pretend = 0, frame = 0
 787              		@ frame_needed = 0, uses_anonymous_args = 0
ARM GAS  /tmp/ccYzO4V0.s 			page 15


 788              	.LVL86:
 789              		.loc 1 392 0
 790 0000 114B     		ldr	r3, .L47
 791              		.loc 1 391 0
 792 0002 70B5     		push	{r4, r5, r6, lr}
 793              	.LCFI10:
 794              		.cfi_def_cfa_offset 16
 795              		.cfi_offset 14, -4
 796              		.cfi_offset 6, -8
 797              		.cfi_offset 5, -12
 798              		.cfi_offset 4, -16
 799              		.loc 1 392 0
 800 0004 9E69     		ldr	r6, [r3, #24]
 801              	.LVL87:
 802              		.loc 1 391 0
 803 0006 0546     		mov	r5, r0
 804              	.LBB27:
 805              		.loc 1 395 0
 806 0008 2023     		movs	r3, #32
 807              	.LVL88:
 808              	@ 395 "../../os/kernel/src/chevents.c" 1
 809 000a 83F31188 		msr     BASEPRI, r3
 810              	@ 0 "" 2
 811              	.LVL89:
 812              		.thumb
 813              	.LBE27:
 814              		.loc 1 397 0
 815 000e B36B     		ldr	r3, [r6, #56]
 816              	.LVL90:
 817 0010 10EA0304 		ands	r4, r0, r3
 818 0014 0ED1     		bne	.L42
 819              		.loc 1 398 0
 820 0016 21B9     		cbnz	r1, .L43
 821              	.LVL91:
 822              	.L46:
 823              	.LBB28:
 824              		.loc 1 404 0
 825 0018 2346     		mov	r3, r4
 826              	.LVL92:
 827              	@ 404 "../../os/kernel/src/chevents.c" 1
 828 001a 83F31188 		msr     BASEPRI, r3
 829              	@ 0 "" 2
 830              	.LVL93:
 831              		.thumb
 832              	.LBE28:
 833              		.loc 1 414 0
 834 001e 2046     		mov	r0, r4
 835 0020 70BD     		pop	{r4, r5, r6, pc}
 836              	.LVL94:
 837              	.L43:
 838              		.loc 1 402 0
 839 0022 7062     		str	r0, [r6, #36]
 840              		.loc 1 403 0
 841 0024 0820     		movs	r0, #8
 842 0026 FFF7FEFF 		bl	chSchGoSleepTimeoutS
 843              	.LVL95:
 844 002a 0028     		cmp	r0, #0
ARM GAS  /tmp/ccYzO4V0.s 			page 16


 845 002c F4DB     		blt	.L46
 846              		.loc 1 407 0
 847 002e B36B     		ldr	r3, [r6, #56]
 848 0030 05EA0304 		and	r4, r5, r3
 849              	.LVL96:
 850              	.L42:
 851              		.loc 1 409 0
 852 0034 6242     		negs	r2, r4
 853 0036 1440     		ands	r4, r4, r2
 854              	.LVL97:
 855              		.loc 1 410 0
 856 0038 23EA0403 		bic	r3, r3, r4
 857 003c B363     		str	r3, [r6, #56]
 858              	.LBB29:
 859              		.loc 1 412 0
 860 003e 0023     		movs	r3, #0
 861              	.LVL98:
 862              	@ 412 "../../os/kernel/src/chevents.c" 1
 863 0040 83F31188 		msr     BASEPRI, r3
 864              	@ 0 "" 2
 865              	.LVL99:
 866              		.thumb
 867              	.LBE29:
 868              		.loc 1 414 0
 869 0044 2046     		mov	r0, r4
 870 0046 70BD     		pop	{r4, r5, r6, pc}
 871              	.L48:
 872              		.align	2
 873              	.L47:
 874 0048 00000000 		.word	rlist
 875              		.cfi_endproc
 876              	.LFE19:
 877              		.size	chEvtWaitOneTimeout, .-chEvtWaitOneTimeout
 878 004c AFF30080 		.section	.text.chEvtWaitAnyTimeout,"ax",%progbits
 879              		.align	2
 880              		.p2align 4,,15
 881              		.global	chEvtWaitAnyTimeout
 882              		.thumb
 883              		.thumb_func
 884              		.type	chEvtWaitAnyTimeout, %function
 885              	chEvtWaitAnyTimeout:
 886              	.LFB20:
 887              		.loc 1 434 0
 888              		.cfi_startproc
 889              		@ args = 0, pretend = 0, frame = 0
 890              		@ frame_needed = 0, uses_anonymous_args = 0
 891              	.LVL100:
 892              		.loc 1 435 0
 893 0000 104B     		ldr	r3, .L55
 894              		.loc 1 434 0
 895 0002 70B5     		push	{r4, r5, r6, lr}
 896              	.LCFI11:
 897              		.cfi_def_cfa_offset 16
 898              		.cfi_offset 14, -4
 899              		.cfi_offset 6, -8
 900              		.cfi_offset 5, -12
 901              		.cfi_offset 4, -16
ARM GAS  /tmp/ccYzO4V0.s 			page 17


 902              		.loc 1 435 0
 903 0004 9E69     		ldr	r6, [r3, #24]
 904              	.LVL101:
 905              		.loc 1 434 0
 906 0006 0446     		mov	r4, r0
 907              	.LBB30:
 908              		.loc 1 438 0
 909 0008 2023     		movs	r3, #32
 910              	.LVL102:
 911              	@ 438 "../../os/kernel/src/chevents.c" 1
 912 000a 83F31188 		msr     BASEPRI, r3
 913              	@ 0 "" 2
 914              	.LVL103:
 915              		.thumb
 916              	.LBE30:
 917              		.loc 1 440 0
 918 000e B36B     		ldr	r3, [r6, #56]
 919              	.LVL104:
 920 0010 10EA0305 		ands	r5, r0, r3
 921 0014 0ED1     		bne	.L50
 922              		.loc 1 441 0
 923 0016 21B9     		cbnz	r1, .L51
 924              	.LVL105:
 925              	.L54:
 926              	.LBB31:
 927              		.loc 1 447 0
 928 0018 2B46     		mov	r3, r5
 929              	.LVL106:
 930              	@ 447 "../../os/kernel/src/chevents.c" 1
 931 001a 83F31188 		msr     BASEPRI, r3
 932              	@ 0 "" 2
 933              	.LVL107:
 934              		.thumb
 935              	.LBE31:
 936              		.loc 1 456 0
 937 001e 2846     		mov	r0, r5
 938 0020 70BD     		pop	{r4, r5, r6, pc}
 939              	.LVL108:
 940              	.L51:
 941              		.loc 1 445 0
 942 0022 7062     		str	r0, [r6, #36]
 943              		.loc 1 446 0
 944 0024 0820     		movs	r0, #8
 945 0026 FFF7FEFF 		bl	chSchGoSleepTimeoutS
 946              	.LVL109:
 947 002a 0028     		cmp	r0, #0
 948 002c F4DB     		blt	.L54
 949              		.loc 1 450 0
 950 002e B36B     		ldr	r3, [r6, #56]
 951 0030 04EA0305 		and	r5, r4, r3
 952              	.LVL110:
 953              	.L50:
 954              		.loc 1 452 0
 955 0034 23EA0503 		bic	r3, r3, r5
 956 0038 B363     		str	r3, [r6, #56]
 957              	.LBB32:
 958              		.loc 1 454 0
ARM GAS  /tmp/ccYzO4V0.s 			page 18


 959 003a 0023     		movs	r3, #0
 960              	.LVL111:
 961              	@ 454 "../../os/kernel/src/chevents.c" 1
 962 003c 83F31188 		msr     BASEPRI, r3
 963              	@ 0 "" 2
 964              	.LVL112:
 965              		.thumb
 966              	.LBE32:
 967              		.loc 1 456 0
 968 0040 2846     		mov	r0, r5
 969 0042 70BD     		pop	{r4, r5, r6, pc}
 970              	.L56:
 971              		.align	2
 972              	.L55:
 973 0044 00000000 		.word	rlist
 974              		.cfi_endproc
 975              	.LFE20:
 976              		.size	chEvtWaitAnyTimeout, .-chEvtWaitAnyTimeout
 977 0048 AFF30080 		.section	.text.chEvtWaitAllTimeout,"ax",%progbits
 977      AFF30080 
 978              		.align	2
 979              		.p2align 4,,15
 980              		.global	chEvtWaitAllTimeout
 981              		.thumb
 982              		.thumb_func
 983              		.type	chEvtWaitAllTimeout, %function
 984              	chEvtWaitAllTimeout:
 985              	.LFB21:
 986              		.loc 1 475 0
 987              		.cfi_startproc
 988              		@ args = 0, pretend = 0, frame = 0
 989              		@ frame_needed = 0, uses_anonymous_args = 0
 990              	.LVL113:
 991 0000 38B5     		push	{r3, r4, r5, lr}
 992              	.LCFI12:
 993              		.cfi_def_cfa_offset 16
 994              		.cfi_offset 14, -4
 995              		.cfi_offset 5, -8
 996              		.cfi_offset 4, -12
 997              		.cfi_offset 3, -16
 998              		.loc 1 476 0
 999 0002 134B     		ldr	r3, .L63
 1000              		.loc 1 475 0
 1001 0004 0446     		mov	r4, r0
 1002              		.loc 1 476 0
 1003 0006 9D69     		ldr	r5, [r3, #24]
 1004              	.LVL114:
 1005              	.LBB33:
 1006              		.loc 1 478 0
 1007 0008 2023     		movs	r3, #32
 1008              	.LVL115:
 1009              	@ 478 "../../os/kernel/src/chevents.c" 1
 1010 000a 83F31188 		msr     BASEPRI, r3
 1011              	@ 0 "" 2
 1012              	.LVL116:
 1013              		.thumb
 1014              	.LBE33:
ARM GAS  /tmp/ccYzO4V0.s 			page 19


 1015              		.loc 1 480 0
 1016 000e AB6B     		ldr	r3, [r5, #56]
 1017              	.LVL117:
 1018 0010 1840     		ands	r0, r0, r3
 1019              	.LVL118:
 1020 0012 A042     		cmp	r0, r4
 1021 0014 0ED0     		beq	.L58
 1022              		.loc 1 481 0
 1023 0016 29B9     		cbnz	r1, .L59
 1024              	.LBB34:
 1025              		.loc 1 482 0
 1026 0018 0B46     		mov	r3, r1
 1027              	.LVL119:
 1028              	@ 482 "../../os/kernel/src/chevents.c" 1
 1029 001a 83F31188 		msr     BASEPRI, r3
 1030              	@ 0 "" 2
 1031              	.LVL120:
 1032              		.thumb
 1033              	.LBE34:
 1034              		.loc 1 483 0
 1035 001e 0C46     		mov	r4, r1
 1036              	.LVL121:
 1037              		.loc 1 495 0
 1038 0020 2046     		mov	r0, r4
 1039 0022 38BD     		pop	{r3, r4, r5, pc}
 1040              	.LVL122:
 1041              	.L59:
 1042              		.loc 1 486 0
 1043 0024 0920     		movs	r0, #9
 1044              		.loc 1 485 0
 1045 0026 6C62     		str	r4, [r5, #36]
 1046              		.loc 1 486 0
 1047 0028 FFF7FEFF 		bl	chSchGoSleepTimeoutS
 1048              	.LVL123:
 1049 002c 0028     		cmp	r0, #0
 1050 002e A8BF     		it	ge
 1051 0030 AB6B     		ldrge	r3, [r5, #56]
 1052 0032 07DB     		blt	.L62
 1053              	.L58:
 1054              		.loc 1 491 0
 1055 0034 23EA0403 		bic	r3, r3, r4
 1056 0038 AB63     		str	r3, [r5, #56]
 1057              	.LBB35:
 1058              		.loc 1 493 0
 1059 003a 0023     		movs	r3, #0
 1060              	.LVL124:
 1061              	@ 493 "../../os/kernel/src/chevents.c" 1
 1062 003c 83F31188 		msr     BASEPRI, r3
 1063              	@ 0 "" 2
 1064              	.LVL125:
 1065              		.thumb
 1066              	.L60:
 1067              	.LBE35:
 1068              		.loc 1 495 0
 1069 0040 2046     		mov	r0, r4
 1070 0042 38BD     		pop	{r3, r4, r5, pc}
 1071              	.LVL126:
ARM GAS  /tmp/ccYzO4V0.s 			page 20


 1072              	.L62:
 1073              	.LBB36:
 1074              		.loc 1 487 0
 1075 0044 0023     		movs	r3, #0
 1076              	@ 487 "../../os/kernel/src/chevents.c" 1
 1077 0046 83F31188 		msr     BASEPRI, r3
 1078              	@ 0 "" 2
 1079              	.LVL127:
 1080              		.thumb
 1081              	.LBE36:
 1082              		.loc 1 488 0
 1083 004a 1C46     		mov	r4, r3
 1084              	.LVL128:
 1085 004c F8E7     		b	.L60
 1086              	.L64:
 1087 004e 00BF     		.align	2
 1088              	.L63:
 1089 0050 00000000 		.word	rlist
 1090              		.cfi_endproc
 1091              	.LFE21:
 1092              		.size	chEvtWaitAllTimeout, .-chEvtWaitAllTimeout
 1093 0054 AFF30080 		.text
 1093      AFF30080 
 1093      AFF30080 
 1094              	.Letext0:
 1095              		.file 2 "/home/craig/gcc/arm/lib/gcc/arm-none-eabi/4.6.2/../../../../arm-none-eabi/include/stdint.
 1096              		.file 3 "../../os/ports/GCC/ARMCMx/chtypes.h"
 1097              		.file 4 "../../os/kernel/include/chlists.h"
 1098              		.file 5 "../../os/kernel/include/chthreads.h"
 1099              		.file 6 "../../os/ports/GCC/ARMCMx/chcore_v7m.h"
 1100              		.file 7 "../../os/kernel/include/chschd.h"
 1101              		.file 8 "../../os/kernel/include/chmtx.h"
 1102              		.file 9 "../../os/kernel/include/chevents.h"