ARM GAS  /tmp/cc6axFCi.s 			page 1


   1              		.syntax unified
   2              		.cpu cortex-m4
   3              		.fpu softvfp
   4              		.eabi_attribute 20, 1
   5              		.eabi_attribute 21, 1
   6              		.eabi_attribute 23, 3
   7              		.eabi_attribute 24, 1
   8              		.eabi_attribute 25, 1
   9              		.eabi_attribute 26, 1
  10              		.eabi_attribute 30, 2
  11              		.eabi_attribute 18, 4
  12              		.thumb
  13              		.file	"chschd.c"
  14              		.text
  15              	.Ltext0:
  16              		.cfi_sections	.debug_frame
  17              		.section	.text.wakeup,"ax",%progbits
  18              		.align	2
  19              		.p2align 4,,15
  20              		.thumb
  21              		.thumb_func
  22              		.type	wakeup, %function
  23              	wakeup:
  24              	.LFB10:
  25              		.file 1 "../../os/kernel/src/chschd.c"
  26              		.loc 1 129 0
  27              		.cfi_startproc
  28              		@ args = 0, pretend = 0, frame = 0
  29              		@ frame_needed = 0, uses_anonymous_args = 0
  30              		@ link register save eliminated.
  31              	.LVL0:
  32              	.LBB22:
  33              		.loc 1 132 0
  34 0000 2023     		movs	r3, #32
  35              	.LVL1:
  36              	@ 132 "../../os/kernel/src/chschd.c" 1
  37 0002 83F31188 		msr     BASEPRI, r3
  38              	@ 0 "" 2
  39              	.LVL2:
  40              		.thumb
  41              	.LBE22:
  42              		.loc 1 133 0
  43 0006 037F     		ldrb	r3, [r0, #28]	@ zero_extendqisi2
  44              	.LVL3:
  45 0008 0D2B     		cmp	r3, #13
  46 000a 11D8     		bhi	.L2
  47 000c DFE803F0 		tbb	[pc, r3]
  48              	.L6:
  49 0010 20       		.byte	(.L10-.L6)/2
  50 0011 10       		.byte	(.L2-.L6)/2
  51 0012 10       		.byte	(.L2-.L6)/2
  52 0013 07       		.byte	(.L4-.L6)/2
  53 0014 10       		.byte	(.L2-.L6)/2
  54 0015 0B       		.byte	(.L5-.L6)/2
  55 0016 10       		.byte	(.L2-.L6)/2
  56 0017 10       		.byte	(.L2-.L6)/2
  57 0018 10       		.byte	(.L2-.L6)/2
ARM GAS  /tmp/cc6axFCi.s 			page 2


  58 0019 10       		.byte	(.L2-.L6)/2
  59 001a 10       		.byte	(.L2-.L6)/2
  60 001b 10       		.byte	(.L2-.L6)/2
  61 001c 10       		.byte	(.L2-.L6)/2
  62 001d 0B       		.byte	(.L5-.L6)/2
  63              		.align	1
  64              	.L4:
  65              		.loc 1 143 0
  66 001e 436A     		ldr	r3, [r0, #36]
  67 0020 9A68     		ldr	r2, [r3, #8]
  68 0022 0132     		adds	r2, r2, #1
  69 0024 9A60     		str	r2, [r3, #8]
  70              	.L5:
  71              	.LVL4:
  72              	.LBB23:
  73              	.LBB24:
  74              		.file 2 "../../os/kernel/include/chinline.h"
  75              		.loc 2 68 0
  76 0026 90E80C00 		ldmia	r0, {r2, r3}
  77 002a 1A60     		str	r2, [r3, #0]
  78              		.loc 2 69 0
  79 002c 0268     		ldr	r2, [r0, #0]
  80 002e 5360     		str	r3, [r2, #4]
  81              	.LVL5:
  82              	.L2:
  83              	.LBE24:
  84              	.LBE23:
  85              		.loc 1 156 0
  86 0030 4FF0FF32 		mov	r2, #-1
  87 0034 4262     		str	r2, [r0, #36]
  88              	.LVL6:
  89              	.LBB25:
  90              	.LBB26:
  91              		.loc 1 85 0
  92 0036 8168     		ldr	r1, [r0, #8]
  93              		.loc 1 86 0
  94 0038 074B     		ldr	r3, .L12
  95              		.loc 1 85 0
  96 003a 0022     		movs	r2, #0
  97 003c 0277     		strb	r2, [r0, #28]
  98              	.LVL7:
  99              	.L8:
 100              		.loc 1 88 0
 101 003e 1B68     		ldr	r3, [r3, #0]
 102              	.LVL8:
 103              		.loc 1 89 0
 104 0040 9A68     		ldr	r2, [r3, #8]
 105 0042 8A42     		cmp	r2, r1
 106 0044 FBD2     		bcs	.L8
 107              		.loc 1 92 0
 108 0046 5A68     		ldr	r2, [r3, #4]
 109              		.loc 1 91 0
 110 0048 0360     		str	r3, [r0, #0]
 111              		.loc 1 92 0
 112 004a 4260     		str	r2, [r0, #4]
 113              		.loc 1 93 0
 114 004c 1060     		str	r0, [r2, #0]
ARM GAS  /tmp/cc6axFCi.s 			page 3


 115 004e 5860     		str	r0, [r3, #4]
 116              	.LVL9:
 117              	.L10:
 118              	.LBE26:
 119              	.LBE25:
 120              	.LBB27:
 121              		.loc 1 158 0
 122 0050 0023     		movs	r3, #0
 123              	.LVL10:
 124              	@ 158 "../../os/kernel/src/chschd.c" 1
 125 0052 83F31188 		msr     BASEPRI, r3
 126              	@ 0 "" 2
 127              	.LVL11:
 128              		.thumb
 129 0056 7047     		bx	lr
 130              	.L13:
 131              		.align	2
 132              	.L12:
 133 0058 00000000 		.word	.LANCHOR0
 134              	.LBE27:
 135              		.cfi_endproc
 136              	.LFE10:
 137              		.size	wakeup, .-wakeup
 138 005c AFF30080 		.section	.text._scheduler_init,"ax",%progbits
 139              		.align	2
 140              		.p2align 4,,15
 141              		.global	_scheduler_init
 142              		.thumb
 143              		.thumb_func
 144              		.type	_scheduler_init, %function
 145              	_scheduler_init:
 146              	.LFB7:
 147              		.loc 1 48 0
 148              		.cfi_startproc
 149              		@ args = 0, pretend = 0, frame = 0
 150              		@ frame_needed = 0, uses_anonymous_args = 0
 151              		@ link register save eliminated.
 152              		.loc 1 50 0
 153 0000 40F20003 		movw	r3, #:lower16:.LANCHOR0
 154 0004 C0F20003 		movt	r3, #:upper16:.LANCHOR0
 155              		.loc 1 51 0
 156 0008 0022     		movs	r2, #0
 157              		.loc 1 50 0
 158 000a 5B60     		str	r3, [r3, #4]
 159 000c 1B60     		str	r3, [r3, #0]
 160              		.loc 1 51 0
 161 000e 9A60     		str	r2, [r3, #8]
 162              		.loc 1 53 0
 163 0010 5B61     		str	r3, [r3, #20]
 164 0012 1B61     		str	r3, [r3, #16]
 165              		.loc 1 55 0
 166 0014 7047     		bx	lr
 167              		.cfi_endproc
 168              	.LFE7:
 169              		.size	_scheduler_init, .-_scheduler_init
 170 0016 00BFAFF3 		.section	.text.chSchReadyI,"ax",%progbits
 170      0080AFF3 
ARM GAS  /tmp/cc6axFCi.s 			page 4


 170      0080
 171              		.align	2
 172              		.p2align 4,,15
 173              		.global	chSchReadyI
 174              		.thumb
 175              		.thumb_func
 176              		.type	chSchReadyI, %function
 177              	chSchReadyI:
 178              	.LFB8:
 179              		.loc 1 74 0
 180              		.cfi_startproc
 181              		@ args = 0, pretend = 0, frame = 0
 182              		@ frame_needed = 0, uses_anonymous_args = 0
 183              		@ link register save eliminated.
 184              	.LVL12:
 185              		.loc 1 85 0
 186 0000 0022     		movs	r2, #0
 187 0002 8168     		ldr	r1, [r0, #8]
 188              		.loc 1 86 0
 189 0004 054B     		ldr	r3, .L18
 190              		.loc 1 85 0
 191 0006 0277     		strb	r2, [r0, #28]
 192              	.LVL13:
 193              	.L16:
 194              		.loc 1 88 0 discriminator 1
 195 0008 1B68     		ldr	r3, [r3, #0]
 196              	.LVL14:
 197              		.loc 1 89 0 discriminator 1
 198 000a 9A68     		ldr	r2, [r3, #8]
 199 000c 8A42     		cmp	r2, r1
 200 000e FBD2     		bcs	.L16
 201              		.loc 1 92 0
 202 0010 5A68     		ldr	r2, [r3, #4]
 203              		.loc 1 91 0
 204 0012 0360     		str	r3, [r0, #0]
 205              		.loc 1 92 0
 206 0014 4260     		str	r2, [r0, #4]
 207              		.loc 1 93 0
 208 0016 1060     		str	r0, [r2, #0]
 209 0018 5860     		str	r0, [r3, #4]
 210              		.loc 1 95 0
 211 001a 7047     		bx	lr
 212              	.L19:
 213              		.align	2
 214              	.L18:
 215 001c 00000000 		.word	.LANCHOR0
 216              		.cfi_endproc
 217              	.LFE8:
 218              		.size	chSchReadyI, .-chSchReadyI
 219              		.section	.text.chSchGoSleepS,"ax",%progbits
 220              		.align	2
 221              		.p2align 4,,15
 222              		.global	chSchGoSleepS
 223              		.thumb
 224              		.thumb_func
 225              		.type	chSchGoSleepS, %function
 226              	chSchGoSleepS:
ARM GAS  /tmp/cc6axFCi.s 			page 5


 227              	.LFB9:
 228              		.loc 1 108 0
 229              		.cfi_startproc
 230              		@ args = 0, pretend = 0, frame = 0
 231              		@ frame_needed = 0, uses_anonymous_args = 0
 232              		@ link register save eliminated.
 233              	.LVL15:
 234              		.loc 1 113 0
 235 0000 40F20003 		movw	r3, #:lower16:.LANCHOR0
 236 0004 C0F20003 		movt	r3, #:upper16:.LANCHOR0
 237              		.loc 1 108 0
 238 0008 10B4     		push	{r4}
 239              	.LCFI0:
 240              		.cfi_def_cfa_offset 4
 241              		.cfi_offset 4, -4
 242              		.loc 1 113 0
 243 000a 9969     		ldr	r1, [r3, #24]
 244              	.LVL16:
 245              	.LBB28:
 246              	.LBB29:
 247              		.loc 2 53 0
 248 000c 1A68     		ldr	r2, [r3, #0]
 249              	.LBE29:
 250              	.LBE28:
 251              		.loc 1 113 0
 252 000e 0877     		strb	r0, [r1, #28]
 253              		.loc 1 117 0
 254 0010 1420     		movs	r0, #20
 255              	.LVL17:
 256              	.LBB32:
 257              	.LBB30:
 258              		.loc 2 55 0
 259 0012 1468     		ldr	r4, [r2, #0]
 260              	.LBE30:
 261              	.LBE32:
 262              		.loc 1 117 0
 263 0014 C877     		strb	r0, [r1, #31]
 264              	.LVL18:
 265              		.loc 1 120 0
 266 0016 0120     		movs	r0, #1
 267 0018 1077     		strb	r0, [r2, #28]
 268              		.loc 1 121 0
 269 001a 1046     		mov	r0, r2
 270              	.LBB33:
 271              	.LBB31:
 272              		.loc 2 55 0
 273 001c 6360     		str	r3, [r4, #4]
 274 001e 1C60     		str	r4, [r3, #0]
 275              	.LBE31:
 276              	.LBE33:
 277              		.loc 1 119 0
 278 0020 9A61     		str	r2, [r3, #24]
 279              		.loc 1 122 0
 280 0022 10BC     		pop	{r4}
 281              		.loc 1 121 0
 282 0024 FFF7FEBF 		b	_port_switch
 283              	.LVL19:
ARM GAS  /tmp/cc6axFCi.s 			page 6


 284              	.LVL20:
 285              	.LVL21:
 286              		.cfi_endproc
 287              	.LFE9:
 288              		.size	chSchGoSleepS, .-chSchGoSleepS
 289              		.section	.text.chSchGoSleepTimeoutS,"ax",%progbits
 290              		.align	2
 291              		.p2align 4,,15
 292              		.global	chSchGoSleepTimeoutS
 293              		.thumb
 294              		.thumb_func
 295              		.type	chSchGoSleepTimeoutS, %function
 296              	chSchGoSleepTimeoutS:
 297              	.LFB11:
 298              		.loc 1 182 0
 299              		.cfi_startproc
 300              		@ args = 0, pretend = 0, frame = 24
 301              		@ frame_needed = 0, uses_anonymous_args = 0
 302              	.LVL22:
 303 0000 30B5     		push	{r4, r5, lr}
 304              	.LCFI1:
 305              		.cfi_def_cfa_offset 12
 306              		.cfi_offset 14, -4
 307              		.cfi_offset 5, -8
 308              		.cfi_offset 4, -12
 309              		.loc 1 186 0
 310 0002 4B1C     		adds	r3, r1, #1
 311              		.loc 1 182 0
 312 0004 87B0     		sub	sp, sp, #28
 313              	.LCFI2:
 314              		.cfi_def_cfa_offset 40
 315              		.loc 1 182 0
 316 0006 0546     		mov	r5, r0
 317              		.loc 1 186 0
 318 0008 11D0     		beq	.L22
 319              	.LBB34:
 320              		.loc 1 189 0
 321 000a 0B4C     		ldr	r4, .L24
 322 000c 0B4A     		ldr	r2, .L24+4
 323 000e A369     		ldr	r3, [r4, #24]
 324 0010 01A8     		add	r0, sp, #4
 325              	.LVL23:
 326 0012 FFF7FEFF 		bl	chVTSetI
 327              	.LVL24:
 328              		.loc 1 190 0
 329 0016 2846     		mov	r0, r5
 330 0018 FFF7FEFF 		bl	chSchGoSleepS
 331              		.loc 1 191 0
 332 001c 049B     		ldr	r3, [sp, #16]
 333 001e 13B1     		cbz	r3, .L23
 334              		.loc 1 192 0
 335 0020 01A8     		add	r0, sp, #4
 336 0022 FFF7FEFF 		bl	chVTResetI
 337              	.L23:
 338              	.LBE34:
 339              		.loc 1 196 0
 340 0026 A369     		ldr	r3, [r4, #24]
ARM GAS  /tmp/cc6axFCi.s 			page 7


 341              		.loc 1 197 0
 342 0028 586A     		ldr	r0, [r3, #36]
 343 002a 07B0     		add	sp, sp, #28
 344 002c 30BD     		pop	{r4, r5, pc}
 345              	.LVL25:
 346              	.L22:
 347              		.loc 1 195 0
 348 002e FFF7FEFF 		bl	chSchGoSleepS
 349              	.LVL26:
 350 0032 014C     		ldr	r4, .L24
 351 0034 F7E7     		b	.L23
 352              	.L25:
 353 0036 00BF     		.align	2
 354              	.L24:
 355 0038 00000000 		.word	.LANCHOR0
 356 003c 00000000 		.word	wakeup
 357              		.cfi_endproc
 358              	.LFE11:
 359              		.size	chSchGoSleepTimeoutS, .-chSchGoSleepTimeoutS
 360              		.section	.text.chSchWakeupS,"ax",%progbits
 361              		.align	2
 362              		.p2align 4,,15
 363              		.global	chSchWakeupS
 364              		.thumb
 365              		.thumb_func
 366              		.type	chSchWakeupS, %function
 367              	chSchWakeupS:
 368              	.LFB12:
 369              		.loc 1 218 0
 370              		.cfi_startproc
 371              		@ args = 0, pretend = 0, frame = 0
 372              		@ frame_needed = 0, uses_anonymous_args = 0
 373              		@ link register save eliminated.
 374              	.LVL27:
 375 0000 30B4     		push	{r4, r5}
 376              	.LCFI3:
 377              		.cfi_def_cfa_offset 8
 378              		.cfi_offset 5, -4
 379              		.cfi_offset 4, -8
 380              		.loc 1 227 0
 381 0002 144C     		ldr	r4, .L33
 382 0004 8568     		ldr	r5, [r0, #8]
 383 0006 A269     		ldr	r2, [r4, #24]
 384              		.loc 1 218 0
 385 0008 0346     		mov	r3, r0
 386              		.loc 1 227 0
 387 000a 9068     		ldr	r0, [r2, #8]
 388              	.LVL28:
 389              		.loc 1 222 0
 390 000c 5962     		str	r1, [r3, #36]
 391              		.loc 1 227 0
 392 000e 8542     		cmp	r5, r0
 393 0010 0CD8     		bhi	.L27
 394              	.LVL29:
 395              	.LBB35:
 396              	.LBB36:
 397              		.loc 1 85 0
ARM GAS  /tmp/cc6axFCi.s 			page 8


 398 0012 0022     		movs	r2, #0
 399 0014 1A77     		strb	r2, [r3, #28]
 400              	.LVL30:
 401              	.L28:
 402              		.loc 1 88 0
 403 0016 2468     		ldr	r4, [r4, #0]
 404              	.LVL31:
 405              		.loc 1 89 0
 406 0018 A268     		ldr	r2, [r4, #8]
 407 001a 9542     		cmp	r5, r2
 408 001c FBD9     		bls	.L28
 409              		.loc 1 92 0
 410 001e 6268     		ldr	r2, [r4, #4]
 411              		.loc 1 91 0
 412 0020 1C60     		str	r4, [r3, #0]
 413              		.loc 1 92 0
 414 0022 5A60     		str	r2, [r3, #4]
 415              		.loc 1 93 0
 416 0024 1360     		str	r3, [r2, #0]
 417 0026 6360     		str	r3, [r4, #4]
 418              	.LBE36:
 419              	.LBE35:
 420              		.loc 1 235 0
 421 0028 30BC     		pop	{r4, r5}
 422 002a 7047     		bx	lr
 423              	.LVL32:
 424              	.L27:
 425              	.LBB37:
 426              	.LBB38:
 427              	.LBB39:
 428              		.loc 1 85 0
 429 002c 0021     		movs	r1, #0
 430              	.LVL33:
 431 002e 1177     		strb	r1, [r2, #28]
 432              	.LVL34:
 433              		.loc 1 86 0
 434 0030 2146     		mov	r1, r4
 435              	.LVL35:
 436              	.L30:
 437              		.loc 1 88 0
 438 0032 0968     		ldr	r1, [r1, #0]
 439              	.LVL36:
 440              		.loc 1 89 0
 441 0034 8D68     		ldr	r5, [r1, #8]
 442 0036 A842     		cmp	r0, r5
 443 0038 FBD9     		bls	.L30
 444              		.loc 1 92 0
 445 003a 4868     		ldr	r0, [r1, #4]
 446              		.loc 1 91 0
 447 003c 1160     		str	r1, [r2, #0]
 448              		.loc 1 92 0
 449 003e 5060     		str	r0, [r2, #4]
 450              		.loc 1 93 0
 451 0040 4A60     		str	r2, [r1, #4]
 452              	.LBE39:
 453              	.LBE38:
 454              		.loc 1 232 0
ARM GAS  /tmp/cc6axFCi.s 			page 9


 455 0042 0121     		movs	r1, #1
 456              	.LVL37:
 457              	.LBB41:
 458              	.LBB40:
 459              		.loc 1 93 0
 460 0044 0260     		str	r2, [r0, #0]
 461              	.LBE40:
 462              	.LBE41:
 463              		.loc 1 232 0
 464 0046 1977     		strb	r1, [r3, #28]
 465              		.loc 1 233 0
 466 0048 1846     		mov	r0, r3
 467 004a 1146     		mov	r1, r2
 468              		.loc 1 231 0
 469 004c A361     		str	r3, [r4, #24]
 470              	.LBE37:
 471              		.loc 1 235 0
 472 004e 30BC     		pop	{r4, r5}
 473              	.LBB42:
 474              		.loc 1 233 0
 475 0050 FFF7FEBF 		b	_port_switch
 476              	.LVL38:
 477              	.L34:
 478              		.align	2
 479              	.L33:
 480 0054 00000000 		.word	.LANCHOR0
 481              	.LBE42:
 482              		.cfi_endproc
 483              	.LFE12:
 484              		.size	chSchWakeupS, .-chSchWakeupS
 485 0058 AFF30080 		.section	.text.chSchDoRescheduleBehind,"ax",%progbits
 485      AFF30080 
 486              		.align	2
 487              		.p2align 4,,15
 488              		.global	chSchDoRescheduleBehind
 489              		.thumb
 490              		.thumb_func
 491              		.type	chSchDoRescheduleBehind, %function
 492              	chSchDoRescheduleBehind:
 493              	.LFB14:
 494              		.loc 1 297 0
 495              		.cfi_startproc
 496              		@ args = 0, pretend = 0, frame = 0
 497              		@ frame_needed = 0, uses_anonymous_args = 0
 498              		@ link register save eliminated.
 499              		.loc 1 300 0
 500 0000 0E4B     		ldr	r3, .L39
 501              	.LBB43:
 502              	.LBB44:
 503              		.loc 2 53 0
 504 0002 1868     		ldr	r0, [r3, #0]
 505              	.LBE44:
 506              	.LBE43:
 507              		.loc 1 300 0
 508 0004 9969     		ldr	r1, [r3, #24]
 509              	.LVL39:
 510              	.LBB48:
ARM GAS  /tmp/cc6axFCi.s 			page 10


 511              	.LBB45:
 512              		.loc 2 55 0
 513 0006 0268     		ldr	r2, [r0, #0]
 514              	.LBE45:
 515              	.LBE48:
 516              		.loc 1 297 0
 517 0008 30B4     		push	{r4, r5}
 518              	.LCFI4:
 519              		.cfi_def_cfa_offset 8
 520              		.cfi_offset 5, -4
 521              		.cfi_offset 4, -8
 522              	.LBB49:
 523              	.LBB46:
 524              		.loc 2 55 0
 525 000a 5360     		str	r3, [r2, #4]
 526              	.LBE46:
 527              	.LBE49:
 528              	.LBB50:
 529              	.LBB51:
 530              		.loc 1 85 0
 531 000c 8C68     		ldr	r4, [r1, #8]
 532              	.LBE51:
 533              	.LBE50:
 534              	.LBB54:
 535              	.LBB47:
 536              		.loc 2 55 0
 537 000e 1A60     		str	r2, [r3, #0]
 538              	.LBE47:
 539              	.LBE54:
 540              		.loc 1 302 0
 541 0010 9861     		str	r0, [r3, #24]
 542              		.loc 1 305 0
 543 0012 1423     		movs	r3, #20
 544              		.loc 1 303 0
 545 0014 0125     		movs	r5, #1
 546              		.loc 1 305 0
 547 0016 CB77     		strb	r3, [r1, #31]
 548              	.LVL40:
 549              	.LBB55:
 550              	.LBB52:
 551              		.loc 1 85 0
 552 0018 0023     		movs	r3, #0
 553              	.LBE52:
 554              	.LBE55:
 555              		.loc 1 303 0
 556 001a 0577     		strb	r5, [r0, #28]
 557              	.LBB56:
 558              	.LBB53:
 559              		.loc 1 85 0
 560 001c 0B77     		strb	r3, [r1, #28]
 561              	.LVL41:
 562 001e 0346     		mov	r3, r0
 563 0020 00E0     		b	.L37
 564              	.LVL42:
 565              	.L38:
 566              		.loc 1 89 0
 567 0022 1B68     		ldr	r3, [r3, #0]
ARM GAS  /tmp/cc6axFCi.s 			page 11


 568              	.LVL43:
 569              	.L37:
 570 0024 9A68     		ldr	r2, [r3, #8]
 571 0026 A242     		cmp	r2, r4
 572 0028 FBD2     		bcs	.L38
 573              		.loc 1 92 0
 574 002a 5A68     		ldr	r2, [r3, #4]
 575              		.loc 1 91 0
 576 002c 0B60     		str	r3, [r1, #0]
 577              		.loc 1 92 0
 578 002e 4A60     		str	r2, [r1, #4]
 579              		.loc 1 93 0
 580 0030 1160     		str	r1, [r2, #0]
 581 0032 5960     		str	r1, [r3, #4]
 582              	.LBE53:
 583              	.LBE56:
 584              		.loc 1 309 0
 585 0034 30BC     		pop	{r4, r5}
 586              		.loc 1 308 0
 587 0036 FFF7FEBF 		b	_port_switch
 588              	.LVL44:
 589              	.L40:
 590 003a 00BF     		.align	2
 591              	.L39:
 592 003c 00000000 		.word	.LANCHOR0
 593              		.cfi_endproc
 594              	.LFE14:
 595              		.size	chSchDoRescheduleBehind, .-chSchDoRescheduleBehind
 596              		.section	.text.chSchDoRescheduleAhead,"ax",%progbits
 597              		.align	2
 598              		.p2align 4,,15
 599              		.global	chSchDoRescheduleAhead
 600              		.thumb
 601              		.thumb_func
 602              		.type	chSchDoRescheduleAhead, %function
 603              	chSchDoRescheduleAhead:
 604              	.LFB15:
 605              		.loc 1 322 0
 606              		.cfi_startproc
 607              		@ args = 0, pretend = 0, frame = 0
 608              		@ frame_needed = 0, uses_anonymous_args = 0
 609              		@ link register save eliminated.
 610              		.loc 1 325 0
 611 0000 0D4B     		ldr	r3, .L45
 612              	.LBB57:
 613              	.LBB58:
 614              		.loc 2 53 0
 615 0002 1868     		ldr	r0, [r3, #0]
 616              	.LBE58:
 617              	.LBE57:
 618              		.loc 1 325 0
 619 0004 9969     		ldr	r1, [r3, #24]
 620              	.LVL45:
 621              	.LBB62:
 622              	.LBB59:
 623              		.loc 2 55 0
 624 0006 0268     		ldr	r2, [r0, #0]
ARM GAS  /tmp/cc6axFCi.s 			page 12


 625              	.LBE59:
 626              	.LBE62:
 627              		.loc 1 322 0
 628 0008 30B4     		push	{r4, r5}
 629              	.LCFI5:
 630              		.cfi_def_cfa_offset 8
 631              		.cfi_offset 5, -4
 632              		.cfi_offset 4, -8
 633              	.LBB63:
 634              	.LBB60:
 635              		.loc 2 55 0
 636 000a 5360     		str	r3, [r2, #4]
 637              	.LBE60:
 638              	.LBE63:
 639              		.loc 1 330 0
 640 000c 8C68     		ldr	r4, [r1, #8]
 641              	.LBB64:
 642              	.LBB61:
 643              		.loc 2 55 0
 644 000e 1A60     		str	r2, [r3, #0]
 645              	.LBE61:
 646              	.LBE64:
 647              		.loc 1 328 0
 648 0010 0125     		movs	r5, #1
 649              		.loc 1 327 0
 650 0012 9861     		str	r0, [r3, #24]
 651              		.loc 1 330 0
 652 0014 0023     		movs	r3, #0
 653              		.loc 1 328 0
 654 0016 0577     		strb	r5, [r0, #28]
 655              		.loc 1 330 0
 656 0018 0B77     		strb	r3, [r1, #28]
 657              	.LVL46:
 658 001a 0346     		mov	r3, r0
 659 001c 00E0     		b	.L43
 660              	.LVL47:
 661              	.L44:
 662              		.loc 1 334 0
 663 001e 1B68     		ldr	r3, [r3, #0]
 664              	.LVL48:
 665              	.L43:
 666              		.loc 1 334 0 is_stmt 0 discriminator 1
 667 0020 9A68     		ldr	r2, [r3, #8]
 668 0022 A242     		cmp	r2, r4
 669 0024 FBD8     		bhi	.L44
 670              		.loc 1 337 0 is_stmt 1
 671 0026 5A68     		ldr	r2, [r3, #4]
 672              		.loc 1 336 0
 673 0028 0B60     		str	r3, [r1, #0]
 674              		.loc 1 337 0
 675 002a 4A60     		str	r2, [r1, #4]
 676              		.loc 1 338 0
 677 002c 1160     		str	r1, [r2, #0]
 678 002e 5960     		str	r1, [r3, #4]
 679              		.loc 1 341 0
 680 0030 30BC     		pop	{r4, r5}
 681              		.loc 1 340 0
ARM GAS  /tmp/cc6axFCi.s 			page 13


 682 0032 FFF7FEBF 		b	_port_switch
 683              	.LVL49:
 684              	.L46:
 685 0036 00BF     		.align	2
 686              	.L45:
 687 0038 00000000 		.word	.LANCHOR0
 688              		.cfi_endproc
 689              	.LFE15:
 690              		.size	chSchDoRescheduleAhead, .-chSchDoRescheduleAhead
 691 003c AFF30080 		.section	.text.chSchRescheduleS,"ax",%progbits
 692              		.align	2
 693              		.p2align 4,,15
 694              		.global	chSchRescheduleS
 695              		.thumb
 696              		.thumb_func
 697              		.type	chSchRescheduleS, %function
 698              	chSchRescheduleS:
 699              	.LFB13:
 700              		.loc 1 246 0
 701              		.cfi_startproc
 702              		@ args = 0, pretend = 0, frame = 0
 703              		@ frame_needed = 0, uses_anonymous_args = 0
 704              		@ link register save eliminated.
 705              		.loc 1 250 0
 706 0000 044B     		ldr	r3, .L50
 707 0002 1A68     		ldr	r2, [r3, #0]
 708 0004 9B69     		ldr	r3, [r3, #24]
 709 0006 9268     		ldr	r2, [r2, #8]
 710 0008 9B68     		ldr	r3, [r3, #8]
 711 000a 9A42     		cmp	r2, r3
 712 000c 00D8     		bhi	.L49
 713 000e 7047     		bx	lr
 714              	.L49:
 715              		.loc 1 252 0
 716              		.loc 1 251 0
 717 0010 FFF7FEBF 		b	chSchDoRescheduleAhead
 718              	.L51:
 719              		.align	2
 720              	.L50:
 721 0014 00000000 		.word	.LANCHOR0
 722              		.cfi_endproc
 723              	.LFE13:
 724              		.size	chSchRescheduleS, .-chSchRescheduleS
 725 0018 AFF30080 		.section	.text.chSchDoReschedule,"ax",%progbits
 725      AFF30080 
 726              		.align	2
 727              		.p2align 4,,15
 728              		.global	chSchDoReschedule
 729              		.thumb
 730              		.thumb_func
 731              		.type	chSchDoReschedule, %function
 732              	chSchDoReschedule:
 733              	.LFB16:
 734              		.loc 1 355 0
 735              		.cfi_startproc
 736              		@ args = 0, pretend = 0, frame = 0
 737              		@ frame_needed = 0, uses_anonymous_args = 0
ARM GAS  /tmp/cc6axFCi.s 			page 14


 738              		@ link register save eliminated.
 739              		.loc 1 360 0
 740 0000 034B     		ldr	r3, .L55
 741 0002 9B69     		ldr	r3, [r3, #24]
 742 0004 DB7F     		ldrb	r3, [r3, #31]	@ zero_extendqisi2
 743 0006 0BB1     		cbz	r3, .L54
 744              		.loc 1 375 0
 745              		.loc 1 368 0
 746 0008 FFF7FEBF 		b	chSchDoRescheduleAhead
 747              	.L54:
 748              		.loc 1 375 0
 749              		.loc 1 363 0
 750 000c FFF7FEBF 		b	chSchDoRescheduleBehind
 751              	.L56:
 752              		.align	2
 753              	.L55:
 754 0010 00000000 		.word	.LANCHOR0
 755              		.cfi_endproc
 756              	.LFE16:
 757              		.size	chSchDoReschedule, .-chSchDoReschedule
 758              		.global	rlist
 759 0014 AFF30080 		.section	.bss.rlist,"aw",%nobits
 759      AFF30080 
 759      AFF30080 
 760              		.align	2
 761              		.set	.LANCHOR0,. + 0
 762              		.type	rlist, %object
 763              		.size	rlist, 28
 764              	rlist:
 765 0000 00000000 		.space	28
 765      00000000 
 765      00000000 
 765      00000000 
 765      00000000 
 766              		.text
 767              	.Letext0:
 768              		.file 3 "/home/craig/gcc/arm/lib/gcc/arm-none-eabi/4.6.2/../../../../arm-none-eabi/include/stdint.
 769              		.file 4 "../../os/ports/GCC/ARMCMx/chtypes.h"
 770              		.file 5 "../../os/kernel/include/chlists.h"
 771              		.file 6 "../../os/kernel/include/chthreads.h"
 772              		.file 7 "../../os/ports/GCC/ARMCMx/chcore_v7m.h"
 773              		.file 8 "../../os/kernel/include/chvt.h"
 774              		.file 9 "../../os/kernel/include/chschd.h"
 775              		.file 10 "../../os/kernel/include/chsem.h"
 776              		.file 11 "../../os/kernel/include/chmtx.h"