ARM GAS  /tmp/cclSAaRO.s 			page 1


   1              		.syntax unified
   2              		.cpu cortex-m4
   3              		.fpu softvfp
   4              		.eabi_attribute 20, 1
   5              		.eabi_attribute 21, 1
   6              		.eabi_attribute 23, 3
   7              		.eabi_attribute 24, 1
   8              		.eabi_attribute 25, 1
   9              		.eabi_attribute 26, 1
  10              		.eabi_attribute 30, 2
  11              		.eabi_attribute 18, 4
  12              		.thumb
  13              		.file	"crt0.c"
  14              		.text
  15              	.Ltext0:
  16              		.cfi_sections	.debug_frame
  17              		.section	.text.__early_init,"ax",%progbits
  18              		.align	2
  19              		.p2align 4,,15
  20              		.weak	__early_init
  21              		.thumb
  22              		.thumb_func
  23              		.type	__early_init, %function
  24              	__early_init:
  25              	.LFB7:
  26              		.file 1 "../../os/ports/GCC/ARMCMx/crt0.c"
  27              		.loc 1 202 0
  28              		.cfi_startproc
  29              		@ args = 0, pretend = 0, frame = 0
  30              		@ frame_needed = 0, uses_anonymous_args = 0
  31              		@ link register save eliminated.
  32              		.loc 1 202 0
  33 0000 7047     		bx	lr
  34              		.cfi_endproc
  35              	.LFE7:
  36              		.size	__early_init, .-__early_init
  37 0002 00BFAFF3 		.section	.text.__late_init,"ax",%progbits
  37      0080AFF3 
  37      0080AFF3 
  37      0080
  38              		.align	2
  39              		.p2align 4,,15
  40              		.weak	__late_init
  41              		.thumb
  42              		.thumb_func
  43              		.type	__late_init, %function
  44              	__late_init:
  45              	.LFB8:
  46              		.loc 1 214 0
  47              		.cfi_startproc
  48              		@ args = 0, pretend = 0, frame = 0
  49              		@ frame_needed = 0, uses_anonymous_args = 0
  50              		@ link register save eliminated.
  51              		.loc 1 214 0
  52 0000 7047     		bx	lr
  53              		.cfi_endproc
  54              	.LFE8:
ARM GAS  /tmp/cclSAaRO.s 			page 2


  55              		.size	__late_init, .-__late_init
  56 0002 00BFAFF3 		.section	.text._default_exit,"ax",%progbits
  56      0080AFF3 
  56      0080AFF3 
  56      0080
  57              		.align	2
  58              		.p2align 4,,15
  59              		.weak	_default_exit
  60              		.thumb
  61              		.thumb_func
  62              		.type	_default_exit, %function
  63              	_default_exit:
  64              	.LFB9:
  65              		.loc 1 225 0
  66              		.cfi_startproc
  67              		@ Naked Function: prologue and epilogue provided by programmer.
  68              		@ args = 0, pretend = 0, frame = 0
  69              		@ frame_needed = 0, uses_anonymous_args = 0
  70              	.L4:
  71 0000 FEE7     		b	.L4
  72              		.cfi_endproc
  73              	.LFE9:
  74              		.size	_default_exit, .-_default_exit
  75 0002 00BFAFF3 		.section	.text.ResetHandler,"ax",%progbits
  75      0080AFF3 
  75      0080AFF3 
  75      0080
  76              		.align	2
  77              		.p2align 4,,15
  78              		.global	ResetHandler
  79              		.thumb
  80              		.thumb_func
  81              		.type	ResetHandler, %function
  82              	ResetHandler:
  83              	.LFB11:
  84              		.loc 1 249 0
  85              		.cfi_startproc
  86              		@ Naked Function: prologue and epilogue provided by programmer.
  87              		@ args = 0, pretend = 0, frame = 0
  88              		@ frame_needed = 0, uses_anonymous_args = 0
  89              		.loc 1 255 0
  90              	@ 255 "../../os/ports/GCC/ARMCMx/crt0.c" 1
  91 0000 72B6     		cpsid   i
  92              	@ 0 "" 2
  93              	.LVL0:
  94              		.loc 1 257 0
  95              		.thumb
  96 0002 244C     		ldr	r4, .L25
  97              	@ 257 "../../os/ports/GCC/ARMCMx/crt0.c" 1
  98 0004 84F30988 		msr     PSP, r4
  99              	@ 0 "" 2
 100              	.LVL1:
 101              		.loc 1 277 0
 102              		.thumb
 103 0008 0223     		movs	r3, #2
 104              	@ 277 "../../os/ports/GCC/ARMCMx/crt0.c" 1
 105 000a 83F31488 		msr     CONTROL, r3
ARM GAS  /tmp/cclSAaRO.s 			page 3


 106              	@ 0 "" 2
 107              		.loc 1 278 0
 108              	@ 278 "../../os/ports/GCC/ARMCMx/crt0.c" 1
 109 000e BFF36F8F 		isb
 110              	@ 0 "" 2
 111              		.loc 1 281 0
 112              		.thumb
 113 0012 FFF7FEFF 		bl	__early_init
 114              	.LVL2:
 115              	.LBB11:
 116              	.LBB12:
 117              		.loc 1 239 0
 118 0016 204B     		ldr	r3, .L25+4
 119 0018 204A     		ldr	r2, .L25+8
 120 001a 9342     		cmp	r3, r2
 121 001c 05D2     		bcs	.L6
 122              		.loc 1 240 0
 123 001e 4FF05531 		mov	r1, #1431655765
 124              	.LVL3:
 125              	.L7:
 126 0022 43F8041B 		str	r1, [r3], #4
 127              	.LVL4:
 128              		.loc 1 239 0
 129 0026 9342     		cmp	r3, r2
 130 0028 FBD3     		bcc	.L7
 131              	.LVL5:
 132              	.L6:
 133              	.LBE12:
 134              	.LBE11:
 135              	.LBB13:
 136              	.LBB14:
 137 002a 1D4B     		ldr	r3, .L25+12
 138 002c A342     		cmp	r3, r4
 139 002e 05D2     		bcs	.L8
 140              		.loc 1 240 0
 141 0030 4FF05532 		mov	r2, #1431655765
 142              	.LVL6:
 143              	.L9:
 144 0034 43F8042B 		str	r2, [r3], #4
 145              	.LVL7:
 146              		.loc 1 239 0
 147 0038 A342     		cmp	r3, r4
 148 003a FBD3     		bcc	.L9
 149              	.LVL8:
 150              	.L8:
 151              	.LBE14:
 152              	.LBE13:
 153              	.LBB15:
 154              		.loc 1 300 0 discriminator 1
 155 003c 194B     		ldr	r3, .L25+16
 156 003e 1A48     		ldr	r0, .L25+20
 157 0040 8342     		cmp	r3, r0
 158 0042 06D2     		bcs	.L10
 159              		.loc 1 300 0 is_stmt 0
 160 0044 194A     		ldr	r2, .L25+24
 161              	.LVL9:
 162              	.L11:
ARM GAS  /tmp/cclSAaRO.s 			page 4


 163              		.loc 1 301 0 is_stmt 1
 164 0046 52F8041F 		ldr	r1, [r2, #4]!
 165 004a 43F8041B 		str	r1, [r3], #4
 166              	.LVL10:
 167              		.loc 1 300 0
 168 004e 8342     		cmp	r3, r0
 169 0050 F9D3     		bcc	.L11
 170              	.LVL11:
 171              	.L10:
 172              	.LBE15:
 173              	.LBB16:
 174              	.LBB17:
 175              		.loc 1 239 0
 176 0052 174B     		ldr	r3, .L25+28
 177 0054 174A     		ldr	r2, .L25+32
 178 0056 9342     		cmp	r3, r2
 179 0058 04D2     		bcs	.L12
 180              		.loc 1 240 0
 181 005a 0021     		movs	r1, #0
 182              	.LVL12:
 183              	.L13:
 184 005c 43F8041B 		str	r1, [r3], #4
 185              	.LVL13:
 186              		.loc 1 239 0
 187 0060 9342     		cmp	r3, r2
 188 0062 FBD3     		bcc	.L13
 189              	.LVL14:
 190              	.L12:
 191              	.LBE17:
 192              	.LBE16:
 193              	.LBB18:
 194              		.loc 1 317 0
 195 0064 144D     		ldr	r5, .L25+36
 196 0066 154C     		ldr	r4, .L25+40
 197              	.LBE18:
 198              		.loc 1 311 0
 199 0068 FFF7FEFF 		bl	__late_init
 200              	.LVL15:
 201              	.LBB19:
 202              		.loc 1 317 0
 203 006c AC42     		cmp	r4, r5
 204 006e 04D2     		bcs	.L14
 205              	.LVL16:
 206              	.L15:
 207              		.loc 1 318 0
 208 0070 54F8043B 		ldr	r3, [r4], #4
 209 0074 9847     		blx	r3
 210              	.LVL17:
 211              		.loc 1 317 0
 212 0076 AC42     		cmp	r4, r5
 213 0078 FAD3     		bcc	.L15
 214              	.LVL18:
 215              	.L14:
 216              	.LBE19:
 217              	.LBB20:
 218              		.loc 1 331 0
 219 007a 114D     		ldr	r5, .L25+44
ARM GAS  /tmp/cclSAaRO.s 			page 5


 220 007c 114C     		ldr	r4, .L25+48
 221              	.LBE20:
 222              		.loc 1 325 0
 223 007e FFF7FEFF 		bl	main
 224              	.LVL19:
 225              	.LBB21:
 226              		.loc 1 331 0
 227 0082 AC42     		cmp	r4, r5
 228 0084 04D2     		bcs	.L16
 229              	.LVL20:
 230              	.L17:
 231              		.loc 1 332 0
 232 0086 54F8043B 		ldr	r3, [r4], #4
 233 008a 9847     		blx	r3
 234              	.LVL21:
 235              		.loc 1 331 0
 236 008c AC42     		cmp	r4, r5
 237 008e FAD3     		bcc	.L17
 238              	.LVL22:
 239              	.L16:
 240              	.LBE21:
 241              		.loc 1 340 0
 242              		.loc 1 339 0
 243 0090 FFF7FEBF 		b	_default_exit
 244              	.L26:
 245              		.align	2
 246              	.L25:
 247 0094 00000000 		.word	__process_stack_end__
 248 0098 00000000 		.word	__main_stack_base__
 249 009c 00000000 		.word	__main_stack_end__
 250 00a0 00000000 		.word	__process_stack_base__
 251 00a4 00000000 		.word	_data
 252 00a8 00000000 		.word	_edata
 253 00ac FCFFFFFF 		.word	_textdata-4
 254 00b0 00000000 		.word	_bss_start
 255 00b4 00000000 		.word	_bss_end
 256 00b8 00000000 		.word	__init_array_end
 257 00bc 00000000 		.word	__init_array_start
 258 00c0 00000000 		.word	__fini_array_end
 259 00c4 00000000 		.word	__fini_array_start
 260              		.cfi_endproc
 261              	.LFE11:
 262              		.size	ResetHandler, .-ResetHandler
 263 00c8 AFF30080 		.text
 263      AFF30080 
 264              	.Letext0:
 265              		.file 2 "/home/craig/gcc/arm/lib/gcc/arm-none-eabi/4.6.2/../../../../arm-none-eabi/include/stdint.