ARM GAS  /tmp/ccLnfCYA.s 			page 1


   1              		.syntax unified
   2              		.cpu cortex-m4
   3              		.fpu softvfp
   4              		.eabi_attribute 20, 1
   5              		.eabi_attribute 21, 1
   6              		.eabi_attribute 23, 3
   7              		.eabi_attribute 24, 1
   8              		.eabi_attribute 25, 1
   9              		.eabi_attribute 26, 1
  10              		.eabi_attribute 30, 2
  11              		.eabi_attribute 18, 4
  12              		.thumb
  13              		.file	"lis302dl.c"
  14              		.text
  15              	.Ltext0:
  16              		.cfi_sections	.debug_frame
  17              		.section	.text.lis302dlReadRegister,"ax",%progbits
  18              		.align	2
  19              		.p2align 4,,15
  20              		.global	lis302dlReadRegister
  21              		.thumb
  22              		.thumb_func
  23              		.type	lis302dlReadRegister, %function
  24              	lis302dlReadRegister:
  25              	.LFB118:
  26              		.file 1 "../../os/various/devices_lib/accel/lis302dl.c"
  27              		.loc 1 64 0
  28              		.cfi_startproc
  29              		@ args = 0, pretend = 0, frame = 0
  30              		@ frame_needed = 0, uses_anonymous_args = 0
  31              	.LVL0:
  32 0000 F8B5     		push	{r3, r4, r5, r6, r7, lr}
  33              	.LCFI0:
  34              		.cfi_def_cfa_offset 24
  35              		.cfi_offset 14, -4
  36              		.cfi_offset 7, -8
  37              		.cfi_offset 6, -12
  38              		.cfi_offset 5, -16
  39              		.cfi_offset 4, -20
  40              		.cfi_offset 3, -24
  41              		.loc 1 67 0
  42 0002 40F20007 		movw	r7, #:lower16:.LANCHOR0
  43 0006 C0F20007 		movt	r7, #:upper16:.LANCHOR0
  44              		.loc 1 64 0
  45 000a 0E46     		mov	r6, r1
  46              		.loc 1 67 0
  47 000c 66F07F06 		orn	r6, r6, #127
  48              		.loc 1 69 0
  49 0010 40F20004 		movw	r4, #:lower16:.LANCHOR1
  50              		.loc 1 64 0
  51 0014 0546     		mov	r5, r0
  52              		.loc 1 69 0
  53 0016 C0F20004 		movt	r4, #:upper16:.LANCHOR1
  54              		.loc 1 66 0
  55 001a FFF7FEFF 		bl	spiSelect
  56              	.LVL1:
  57              		.loc 1 67 0
ARM GAS  /tmp/ccLnfCYA.s 			page 2


  58 001e 3E70     		strb	r6, [r7, #0]
  59              		.loc 1 68 0
  60 0020 FF26     		movs	r6, #255
  61              		.loc 1 69 0
  62 0022 0221     		movs	r1, #2
  63 0024 3A46     		mov	r2, r7
  64 0026 2346     		mov	r3, r4
  65 0028 2846     		mov	r0, r5
  66              		.loc 1 68 0
  67 002a 7E70     		strb	r6, [r7, #1]
  68              		.loc 1 69 0
  69 002c FFF7FEFF 		bl	spiExchange
  70              		.loc 1 70 0
  71 0030 2846     		mov	r0, r5
  72 0032 FFF7FEFF 		bl	spiUnselect
  73              		.loc 1 72 0
  74 0036 6078     		ldrb	r0, [r4, #1]	@ zero_extendqisi2
  75 0038 F8BD     		pop	{r3, r4, r5, r6, r7, pc}
  76              		.cfi_endproc
  77              	.LFE118:
  78              		.size	lis302dlReadRegister, .-lis302dlReadRegister
  79 003a 00BFAFF3 		.section	.text.lis302dlWriteRegister,"ax",%progbits
  79      0080
  80              		.align	2
  81              		.p2align 4,,15
  82              		.global	lis302dlWriteRegister
  83              		.thumb
  84              		.thumb_func
  85              		.type	lis302dlWriteRegister, %function
  86              	lis302dlWriteRegister:
  87              	.LFB119:
  88              		.loc 1 82 0
  89              		.cfi_startproc
  90              		@ args = 0, pretend = 0, frame = 0
  91              		@ frame_needed = 0, uses_anonymous_args = 0
  92              	.LVL2:
  93              		.loc 1 84 0
  94 0000 A1F12003 		sub	r3, r1, #32
  95              		.loc 1 82 0
  96 0004 70B5     		push	{r4, r5, r6, lr}
  97              	.LCFI1:
  98              		.cfi_def_cfa_offset 16
  99              		.cfi_offset 14, -4
 100              		.cfi_offset 6, -8
 101              		.cfi_offset 5, -12
 102              		.cfi_offset 4, -16
 103              		.loc 1 82 0
 104 0006 0C46     		mov	r4, r1
 105              		.loc 1 84 0
 106 0008 D9B2     		uxtb	r1, r3
 107              	.LVL3:
 108 000a 1F29     		cmp	r1, #31
 109              		.loc 1 82 0
 110 000c 0546     		mov	r5, r0
 111 000e 1646     		mov	r6, r2
 112              		.loc 1 84 0
 113 0010 17D8     		bhi	.L2
ARM GAS  /tmp/ccLnfCYA.s 			page 3


 114 0012 5BB2     		sxtb	r3, r3
 115 0014 0722     		movs	r2, #7
 116              	.LVL4:
 117 0016 0121     		movs	r1, #1
 118 0018 11FA03F3 		lsls	r3, r1, r3
 119 001c CFF6DD12 		movt	r2, 63965
 120 0020 1A40     		ands	r2, r2, r3
 121 0022 72B1     		cbz	r2, .L2
 122              		.loc 1 115 0
 123 0024 FFF7FEFF 		bl	spiSelect
 124              	.LVL5:
 125              		.loc 1 116 0
 126 0028 064B     		ldr	r3, .L6
 127              		.loc 1 118 0
 128 002a 2846     		mov	r0, r5
 129 002c 0221     		movs	r1, #2
 130 002e 1A46     		mov	r2, r3
 131              		.loc 1 116 0
 132 0030 1C70     		strb	r4, [r3, #0]
 133              		.loc 1 117 0
 134 0032 5E70     		strb	r6, [r3, #1]
 135              		.loc 1 118 0
 136 0034 FFF7FEFF 		bl	spiSend
 137              		.loc 1 119 0
 138 0038 2846     		mov	r0, r5
 139              		.loc 1 121 0
 140 003a BDE87040 		pop	{r4, r5, r6, lr}
 141              		.loc 1 119 0
 142 003e FFF7FEBF 		b	spiUnselect
 143              	.L2:
 144 0042 70BD     		pop	{r4, r5, r6, pc}
 145              	.L7:
 146              		.align	2
 147              	.L6:
 148 0044 00000000 		.word	.LANCHOR0
 149              		.cfi_endproc
 150              	.LFE119:
 151              		.size	lis302dlWriteRegister, .-lis302dlWriteRegister
 152 0048 AFF30080 		.section	.bss.rxbuf,"aw",%nobits
 152      AFF30080 
 153              		.align	2
 154              		.set	.LANCHOR1,. + 0
 155              		.type	rxbuf, %object
 156              		.size	rxbuf, 2
 157              	rxbuf:
 158 0000 0000     		.space	2
 159 0002 0000     		.section	.bss.txbuf,"aw",%nobits
 160              		.align	2
 161              		.set	.LANCHOR0,. + 0
 162              		.type	txbuf, %object
 163              		.size	txbuf, 2
 164              	txbuf:
 165 0000 0000     		.space	2
 166 0002 0000     		.text
 167              	.Letext0:
 168              		.file 2 "/home/craig/gcc/arm/lib/gcc/arm-none-eabi/4.6.2/../../../../arm-none-eabi/include/stdint.
 169              		.file 3 "../../os/ports/GCC/ARMCMx/chtypes.h"
ARM GAS  /tmp/ccLnfCYA.s 			page 4


 170              		.file 4 "../../os/kernel/include/chlists.h"
 171              		.file 5 "../../os/kernel/include/chthreads.h"
 172              		.file 6 "../../os/ports/GCC/ARMCMx/chcore_v7m.h"
 173              		.file 7 "../../os/kernel/include/chmtx.h"
 174              		.file 8 "../../os/hal/platforms/STM32F4xx/stm32f4xx.h"
 175              		.file 9 "../../os/hal/platforms/STM32F4xx/stm32_dma.h"
 176              		.file 10 "../../os/hal/platforms/STM32/GPIOv2/pal_lld.h"
 177              		.file 11 "../../os/hal/include/spi.h"
 178              		.file 12 "../../os/hal/platforms/STM32/spi_lld.h"
 179              		.file 13 "../../os/ports/common/ARMCMx/CMSIS/include/core_cm4.h"