ARM GAS  /tmp/cc0ZwGXP.s 			page 1


   1              		.syntax unified
   2              		.cpu cortex-m4
   3              		.fpu softvfp
   4              		.eabi_attribute 20, 1
   5              		.eabi_attribute 21, 1
   6              		.eabi_attribute 23, 3
   7              		.eabi_attribute 24, 1
   8              		.eabi_attribute 25, 1
   9              		.eabi_attribute 26, 1
  10              		.eabi_attribute 30, 2
  11              		.eabi_attribute 18, 4
  12              		.thumb
  13              		.file	"main.c"
  14              		.text
  15              	.Ltext0:
  16              		.cfi_sections	.debug_frame
  17              		.section	.text.requestsHook,"ax",%progbits
  18              		.align	2
  19              		.p2align 4,,15
  20              		.global	requestsHook
  21              		.thumb
  22              		.thumb_func
  23              		.type	requestsHook, %function
  24              	requestsHook:
  25              	.LFB122:
  26              		.file 1 "main.c"
  27              		.loc 1 211 0
  28              		.cfi_startproc
  29              		@ args = 0, pretend = 0, frame = 0
  30              		@ frame_needed = 0, uses_anonymous_args = 0
  31              		@ link register save eliminated.
  32              	.LVL0:
  33              		.loc 1 214 0
  34 0000 0020     		movs	r0, #0
  35              	.LVL1:
  36 0002 7047     		bx	lr
  37              		.cfi_endproc
  38              	.LFE122:
  39              		.size	requestsHook, .-requestsHook
  40 0004 AFF30080 		.section	.text.get_descriptor,"ax",%progbits
  40      AFF30080 
  40      AFF30080 
  41              		.align	2
  42              		.p2align 4,,15
  43              		.thumb
  44              		.thumb_func
  45              		.type	get_descriptor, %function
  46              	get_descriptor:
  47              	.LFB121:
  48              		.loc 1 182 0
  49              		.cfi_startproc
  50              		@ args = 0, pretend = 0, frame = 0
  51              		@ frame_needed = 0, uses_anonymous_args = 0
  52              		@ link register save eliminated.
  53              	.LVL2:
  54              		.loc 1 187 0
  55 0000 0229     		cmp	r1, #2
ARM GAS  /tmp/cc0ZwGXP.s 			page 2


  56 0002 15D0     		beq	.L7
  57 0004 0329     		cmp	r1, #3
  58 0006 0DD0     		beq	.L6
  59 0008 0129     		cmp	r1, #1
  60 000a 09D0     		beq	.L11
  61              	.LBB10:
  62              	.LBB11:
  63              		.loc 1 200 0
  64 000c 4FF44063 		mov	r3, #3072
  65              	.LVL3:
  66 0010 C4F20203 		movt	r3, 16386
  67 0014 0020     		movs	r0, #0
  68              	.LVL4:
  69 0016 5A69     		ldr	r2, [r3, #20]
  70              	.LVL5:
  71 0018 82F48052 		eor	r2, r2, #4096
  72 001c 5A61     		str	r2, [r3, #20]
  73 001e 7047     		bx	lr
  74              	.LVL6:
  75              	.L11:
  76              	.LBE11:
  77              	.LBE10:
  78              		.loc 1 189 0
  79 0020 0548     		ldr	r0, .L12
  80              	.LVL7:
  81 0022 7047     		bx	lr
  82              	.LVL8:
  83              	.L6:
  84              		.loc 1 193 0
  85 0024 032A     		cmp	r2, #3
  86 0026 05D8     		bhi	.L8
  87              		.loc 1 194 0
  88 0028 0448     		ldr	r0, .L12+4
  89              	.LVL9:
  90 002a 00EBC200 		add	r0, r0, r2, lsl #3
  91 002e 7047     		bx	lr
  92              	.LVL10:
  93              	.L7:
  94              		.loc 1 191 0
  95 0030 0348     		ldr	r0, .L12+8
  96              	.LVL11:
  97 0032 7047     		bx	lr
  98              	.LVL12:
  99              	.L8:
 100              		.loc 1 197 0
 101 0034 0348     		ldr	r0, .L12+12
 102              	.LVL13:
 103              		.loc 1 202 0
 104 0036 7047     		bx	lr
 105              	.L13:
 106              		.align	2
 107              	.L12:
 108 0038 00000000 		.word	.LANCHOR0
 109 003c 00000000 		.word	.LANCHOR2
 110 0040 00000000 		.word	.LANCHOR1
 111 0044 20000000 		.word	.LANCHOR2+32
 112              		.cfi_endproc
ARM GAS  /tmp/cc0ZwGXP.s 			page 3


 113              	.LFE121:
 114              		.size	get_descriptor, .-get_descriptor
 115 0048 AFF30080 		.section	.text.usb_event,"ax",%progbits
 115      AFF30080 
 116              		.align	2
 117              		.p2align 4,,15
 118              		.thumb
 119              		.thumb_func
 120              		.type	usb_event, %function
 121              	usb_event:
 122              	.LFB120:
 123              		.loc 1 143 0
 124              		.cfi_startproc
 125              		@ args = 0, pretend = 0, frame = 0
 126              		@ frame_needed = 0, uses_anonymous_args = 0
 127              	.LVL14:
 128 0000 10B5     		push	{r4, lr}
 129              	.LCFI0:
 130              		.cfi_def_cfa_offset 8
 131              		.cfi_offset 14, -4
 132              		.cfi_offset 4, -8
 133              		.loc 1 143 0
 134 0002 0446     		mov	r4, r0
 135              		.loc 1 145 0
 136 0004 0529     		cmp	r1, #5
 137 0006 04D8     		bhi	.L15
 138 0008 DFE801F0 		tbb	[pc, r1]
 139              	.L19:
 140 000c 1F       		.byte	(.L16-.L19)/2
 141 000d 0B       		.byte	(.L14-.L19)/2
 142 000e 0C       		.byte	(.L18-.L19)/2
 143 000f 0B       		.byte	(.L14-.L19)/2
 144 0010 0B       		.byte	(.L14-.L19)/2
 145 0011 0B       		.byte	(.L14-.L19)/2
 146              		.align	1
 147              	.L15:
 148              		.loc 1 172 0
 149 0012 4FF44063 		mov	r3, #3072
 150 0016 C4F20203 		movt	r3, 16386
 151 001a 5A69     		ldr	r2, [r3, #20]
 152 001c 82F48042 		eor	r2, r2, #16384
 153 0020 5A61     		str	r2, [r3, #20]
 154              	.L14:
 155 0022 10BD     		pop	{r4, pc}
 156              	.L18:
 157              	.LVL15:
 158              	.LBB16:
 159              	.LBB17:
 160              	.LBB18:
 161              		.loc 1 158 0
 162 0024 2023     		movs	r3, #32
 163              	.LVL16:
 164              	@ 158 "main.c" 1
 165 0026 83F31188 		msr     BASEPRI, r3
 166              	@ 0 "" 2
 167              	.LVL17:
 168              		.thumb
ARM GAS  /tmp/cc0ZwGXP.s 			page 4


 169              	.LBE18:
 170              		.loc 1 159 0
 171 002a 0121     		movs	r1, #1
 172              	.LVL18:
 173 002c 0D4A     		ldr	r2, .L20
 174 002e FFF7FEFF 		bl	usbInitEndpointI
 175              	.LVL19:
 176              		.loc 1 160 0
 177 0032 2046     		mov	r0, r4
 178 0034 0221     		movs	r1, #2
 179 0036 0C4A     		ldr	r2, .L20+4
 180 0038 FFF7FEFF 		bl	usbInitEndpointI
 181              	.LBB19:
 182              		.loc 1 161 0
 183 003c 0023     		movs	r3, #0
 184              	.LVL20:
 185              	@ 161 "main.c" 1
 186 003e 83F31188 		msr     BASEPRI, r3
 187              	@ 0 "" 2
 188              	.LVL21:
 189              		.thumb
 190              	.LBE19:
 191              		.loc 1 163 0
 192 0042 0A4B     		ldr	r3, .L20+8
 193              	.LVL22:
 194 0044 0122     		movs	r2, #1
 195 0046 1A70     		strb	r2, [r3, #0]
 196 0048 10BD     		pop	{r4, pc}
 197              	.LVL23:
 198              	.L16:
 199              	.LBE17:
 200              	.LBE16:
 201              		.loc 1 149 0
 202 004a 4FF44063 		mov	r3, #3072
 203 004e C4F20203 		movt	r3, 16386
 204              		.loc 1 148 0
 205 0052 0749     		ldr	r1, .L20+12
 206              	.LVL24:
 207              		.loc 1 149 0
 208 0054 5A69     		ldr	r2, [r3, #20]
 209              		.loc 1 148 0
 210 0056 0020     		movs	r0, #0
 211              		.loc 1 149 0
 212 0058 82F40052 		eor	r2, r2, #8192
 213              		.loc 1 148 0
 214 005c 0870     		strb	r0, [r1, #0]
 215              		.loc 1 149 0
 216 005e 5A61     		str	r2, [r3, #20]
 217              		.loc 1 150 0
 218 0060 10BD     		pop	{r4, pc}
 219              	.L21:
 220 0062 00BF     		.align	2
 221              	.L20:
 222 0064 00000000 		.word	.LANCHOR4
 223 0068 00000000 		.word	.LANCHOR5
 224 006c 00000000 		.word	.LANCHOR6
 225 0070 00000000 		.word	.LANCHOR3
ARM GAS  /tmp/cc0ZwGXP.s 			page 5


 226              		.cfi_endproc
 227              	.LFE120:
 228              		.size	usb_event, .-usb_event
 229 0074 AFF30080 		.section	.text.dataReceived,"ax",%progbits
 229      AFF30080 
 229      AFF30080 
 230              		.align	2
 231              		.p2align 4,,15
 232              		.global	dataReceived
 233              		.thumb
 234              		.thumb_func
 235              		.type	dataReceived, %function
 236              	dataReceived:
 237              	.LFB119:
 238              		.loc 1 84 0
 239              		.cfi_startproc
 240              		@ args = 0, pretend = 0, frame = 0
 241              		@ frame_needed = 0, uses_anonymous_args = 0
 242              	.LVL25:
 243 0000 10B5     		push	{r4, lr}
 244              	.LCFI1:
 245              		.cfi_def_cfa_offset 8
 246              		.cfi_offset 14, -4
 247              		.cfi_offset 4, -8
 248              		.loc 1 85 0
 249 0002 0431     		adds	r1, r1, #4
 250              	.LVL26:
 251              		.loc 1 89 0
 252 0004 234B     		ldr	r3, .L31
 253              		.loc 1 85 0
 254 0006 50F82120 		ldr	r2, [r0, r1, lsl #2]
 255              		.loc 1 89 0
 256 000a 1B78     		ldrb	r3, [r3, #0]	@ zero_extendqisi2
 257              		.loc 1 85 0
 258 000c 9269     		ldr	r2, [r2, #24]
 259              	.LVL27:
 260              		.loc 1 84 0
 261 000e 0446     		mov	r4, r0
 262              		.loc 1 89 0
 263 0010 8BB1     		cbz	r3, .L22
 264              		.loc 1 91 0
 265 0012 9368     		ldr	r3, [r2, #8]
 266 0014 83B9     		cbnz	r3, .L30
 267              	.L24:
 268              	.LVL28:
 269              	.LBB24:
 270              	.LBB25:
 271              		.loc 1 112 0
 272 0016 4023     		movs	r3, #64
 273 0018 2046     		mov	r0, r4
 274              	.LVL29:
 275 001a 0221     		movs	r1, #2
 276              	.LVL30:
 277 001c 1E4A     		ldr	r2, .L31+4
 278 001e FFF7FEFF 		bl	usbPrepareReceive
 279              	.LBB26:
 280              		.loc 1 114 0
ARM GAS  /tmp/cc0ZwGXP.s 			page 6


 281 0022 2023     		movs	r3, #32
 282              	.LVL31:
 283              	@ 114 "main.c" 1
 284 0024 83F31188 		msr     BASEPRI, r3
 285              	@ 0 "" 2
 286              	.LVL32:
 287              		.thumb
 288              	.LBE26:
 289              		.loc 1 115 0
 290 0028 0221     		movs	r1, #2
 291 002a 2046     		mov	r0, r4
 292 002c FFF7FEFF 		bl	usbStartReceiveI
 293              	.LVL33:
 294              	.LBB27:
 295              		.loc 1 116 0
 296 0030 0023     		movs	r3, #0
 297              	.LVL34:
 298              	@ 116 "main.c" 1
 299 0032 83F31188 		msr     BASEPRI, r3
 300              	@ 0 "" 2
 301              	.LVL35:
 302              		.thumb
 303              	.L22:
 304 0036 10BD     		pop	{r4, pc}
 305              	.LVL36:
 306              	.L30:
 307              	.LBE27:
 308              	.LBE25:
 309              	.LBE24:
 310              		.loc 1 92 0
 311 0038 174B     		ldr	r3, .L31+4
 312 003a 1B78     		ldrb	r3, [r3, #0]	@ zero_extendqisi2
 313 003c 313B     		subs	r3, r3, #49
 314 003e 032B     		cmp	r3, #3
 315 0040 E9D8     		bhi	.L24
 316 0042 DFE803F0 		tbb	[pc, r3]
 317              	.LVL37:
 318              	.L29:
 319 0046 1D       		.byte	(.L25-.L29)/2
 320 0047 14       		.byte	(.L26-.L29)/2
 321 0048 0B       		.byte	(.L27-.L29)/2
 322 0049 02       		.byte	(.L28-.L29)/2
 323              		.align	1
 324              	.L28:
 325              		.loc 1 103 0
 326 004a 4FF44063 		mov	r3, #3072
 327 004e C4F20203 		movt	r3, 16386
 328 0052 5A69     		ldr	r2, [r3, #20]
 329 0054 82F40042 		eor	r2, r2, #32768
 330 0058 5A61     		str	r2, [r3, #20]
 331              		.loc 1 104 0
 332 005a DCE7     		b	.L24
 333              	.L27:
 334              		.loc 1 100 0
 335 005c 4FF44063 		mov	r3, #3072
 336 0060 C4F20203 		movt	r3, 16386
 337 0064 5A69     		ldr	r2, [r3, #20]
ARM GAS  /tmp/cc0ZwGXP.s 			page 7


 338 0066 82F48042 		eor	r2, r2, #16384
 339 006a 5A61     		str	r2, [r3, #20]
 340              		.loc 1 101 0
 341 006c D3E7     		b	.L24
 342              	.L26:
 343              		.loc 1 97 0
 344 006e 4FF44063 		mov	r3, #3072
 345 0072 C4F20203 		movt	r3, 16386
 346 0076 5A69     		ldr	r2, [r3, #20]
 347 0078 82F48052 		eor	r2, r2, #4096
 348 007c 5A61     		str	r2, [r3, #20]
 349              		.loc 1 98 0
 350 007e CAE7     		b	.L24
 351              	.L25:
 352              		.loc 1 94 0
 353 0080 4FF44063 		mov	r3, #3072
 354 0084 C4F20203 		movt	r3, 16386
 355 0088 5A69     		ldr	r2, [r3, #20]
 356 008a 82F40052 		eor	r2, r2, #8192
 357 008e 5A61     		str	r2, [r3, #20]
 358              		.loc 1 95 0
 359 0090 C1E7     		b	.L24
 360              	.L32:
 361 0092 00BF     		.align	2
 362              	.L31:
 363 0094 00000000 		.word	.LANCHOR3
 364 0098 00000000 		.word	.LANCHOR7
 365              		.cfi_endproc
 366              	.LFE119:
 367              		.size	dataReceived, .-dataReceived
 368 009c AFF30080 		.section	.text.dataTransmitted,"ax",%progbits
 369              		.align	2
 370              		.p2align 4,,15
 371              		.global	dataTransmitted
 372              		.thumb
 373              		.thumb_func
 374              		.type	dataTransmitted, %function
 375              	dataTransmitted:
 376              	.LFB118:
 377              		.loc 1 41 0
 378              		.cfi_startproc
 379              		@ args = 0, pretend = 0, frame = 0
 380              		@ frame_needed = 0, uses_anonymous_args = 0
 381              	.LVL38:
 382 0000 10B5     		push	{r4, lr}
 383              	.LCFI2:
 384              		.cfi_def_cfa_offset 8
 385              		.cfi_offset 14, -4
 386              		.cfi_offset 4, -8
 387              		.loc 1 45 0
 388 0002 4FF44063 		mov	r3, #3072
 389 0006 C4F20203 		movt	r3, 16386
 390              		.loc 1 48 0
 391 000a 0C4A     		ldr	r2, .L35
 392              		.loc 1 45 0
 393 000c 5969     		ldr	r1, [r3, #20]
 394              	.LVL39:
ARM GAS  /tmp/cc0ZwGXP.s 			page 8


 395              		.loc 1 48 0
 396 000e 1278     		ldrb	r2, [r2, #0]	@ zero_extendqisi2
 397              		.loc 1 45 0
 398 0010 81F40051 		eor	r1, r1, #8192
 399              		.loc 1 41 0
 400 0014 0446     		mov	r4, r0
 401              		.loc 1 45 0
 402 0016 5961     		str	r1, [r3, #20]
 403              		.loc 1 48 0
 404 0018 7AB1     		cbz	r2, .L33
 405              	.LVL40:
 406              	.LBB32:
 407              	.LBB33:
 408              		.loc 1 51 0
 409 001a 0121     		movs	r1, #1
 410 001c 084A     		ldr	r2, .L35+4
 411 001e 4FF48073 		mov	r3, #256
 412 0022 FFF7FEFF 		bl	usbPrepareTransmit
 413              	.LVL41:
 414              	.LBB34:
 415              		.loc 1 53 0
 416 0026 2023     		movs	r3, #32
 417              	.LVL42:
 418              	@ 53 "main.c" 1
 419 0028 83F31188 		msr     BASEPRI, r3
 420              	@ 0 "" 2
 421              	.LVL43:
 422              		.thumb
 423              	.LBE34:
 424              		.loc 1 54 0
 425 002c 0121     		movs	r1, #1
 426 002e 2046     		mov	r0, r4
 427 0030 FFF7FEFF 		bl	usbStartTransmitI
 428              	.LVL44:
 429              	.LBB35:
 430              		.loc 1 55 0
 431 0034 0023     		movs	r3, #0
 432              	.LVL45:
 433              	@ 55 "main.c" 1
 434 0036 83F31188 		msr     BASEPRI, r3
 435              	@ 0 "" 2
 436              	.LVL46:
 437              		.thumb
 438              	.L33:
 439 003a 10BD     		pop	{r4, pc}
 440              	.L36:
 441              		.align	2
 442              	.L35:
 443 003c 00000000 		.word	.LANCHOR3
 444 0040 00000000 		.word	.LANCHOR8
 445              	.LBE35:
 446              	.LBE33:
 447              	.LBE32:
 448              		.cfi_endproc
 449              	.LFE118:
 450              		.size	dataTransmitted, .-dataTransmitted
 451 0044 AFF30080 		.section	.text.startup.main,"ax",%progbits
ARM GAS  /tmp/cc0ZwGXP.s 			page 9


 451      AFF30080 
 451      AFF30080 
 452              		.align	2
 453              		.p2align 4,,15
 454              		.global	main
 455              		.thumb
 456              		.thumb_func
 457              		.type	main, %function
 458              	main:
 459              	.LFB123:
 460              		.loc 1 248 0
 461              		.cfi_startproc
 462              		@ args = 0, pretend = 0, frame = 0
 463              		@ frame_needed = 0, uses_anonymous_args = 0
 464              	.LVL47:
 465 0000 2DE9F041 		push	{r4, r5, r6, r7, r8, lr}
 466              	.LCFI3:
 467              		.cfi_def_cfa_offset 24
 468              		.cfi_offset 14, -4
 469              		.cfi_offset 8, -8
 470              		.cfi_offset 7, -12
 471              		.cfi_offset 6, -16
 472              		.cfi_offset 5, -20
 473              		.cfi_offset 4, -24
 474              		.loc 1 254 0
 475 0004 4EF64F40 		movw	r0, #60495
 476 0008 374D     		ldr	r5, .L45
 477              		.loc 1 248 0
 478 000a 0023     		movs	r3, #0
 479              		.loc 1 254 0
 480 000c C4F6C460 		movt	r0, 20164
 481 0010 1A24     		movs	r4, #26
 482              	.LVL48:
 483              	.L38:
 484              		.loc 1 254 0 is_stmt 0 discriminator 2
 485 0012 9AB2     		uxth	r2, r3
 486 0014 A0FB0261 		umull	r6, r1, r0, r2
 487 0018 C908     		lsrs	r1, r1, #3
 488 001a 04FB1122 		mls	r2, r4, r1, r2
 489 001e 6132     		adds	r2, r2, #97
 490 0020 EA54     		strb	r2, [r5, r3]
 491              	.LVL49:
 492 0022 0133     		adds	r3, r3, #1
 493              	.LVL50:
 494              		.loc 1 253 0 is_stmt 1 discriminator 2
 495 0024 B3F5807F 		cmp	r3, #256
 496 0028 F3D1     		bne	.L38
 497              		.loc 1 266 0
 498 002a 4FF44065 		mov	r5, #3072
 499 002e C4F20205 		movt	r5, 16386
 500              		.loc 1 263 0
 501 0032 FFF7FEFF 		bl	halInit
 502              	.LVL51:
 503              		.loc 1 264 0
 504 0036 FFF7FEFF 		bl	chSysInit
 505              		.loc 1 266 0
 506 003a 6B69     		ldr	r3, [r5, #20]
ARM GAS  /tmp/cc0ZwGXP.s 			page 10


 507              		.loc 1 272 0
 508 003c 2B4C     		ldr	r4, .L45+4
 509 003e 2C49     		ldr	r1, .L45+8
 510 0040 2068     		ldr	r0, [r4, #0]
 511              		.loc 1 273 0
 512 0042 2C4E     		ldr	r6, .L45+12
 513 0044 2C4F     		ldr	r7, .L45+16
 514              		.loc 1 266 0
 515 0046 83F40053 		eor	r3, r3, #8192
 516 004a 6B61     		str	r3, [r5, #20]
 517              		.loc 1 267 0
 518 004c 6B69     		ldr	r3, [r5, #20]
 519 004e 83F48053 		eor	r3, r3, #4096
 520 0052 6B61     		str	r3, [r5, #20]
 521              		.loc 1 268 0
 522 0054 6B69     		ldr	r3, [r5, #20]
 523 0056 83F48043 		eor	r3, r3, #16384
 524 005a 6B61     		str	r3, [r5, #20]
 525              		.loc 1 269 0
 526 005c 6B69     		ldr	r3, [r5, #20]
 527 005e 83F40043 		eor	r3, r3, #32768
 528 0062 6B61     		str	r3, [r5, #20]
 529              		.loc 1 272 0
 530 0064 FFF7FEFF 		bl	usbStart
 531              		.loc 1 273 0
 532 0068 2268     		ldr	r2, [r4, #0]
 533 006a 3378     		ldrb	r3, [r6, #0]	@ zero_extendqisi2
 534 006c D26B     		ldr	r2, [r2, #60]
 535 006e 916B     		ldr	r1, [r2, #56]
 536 0070 41F40021 		orr	r1, r1, #524288
 537 0074 9163     		str	r1, [r2, #56]
 538              		.loc 1 295 0
 539 0076 4FF00108 		mov	r8, #1
 540              		.loc 1 293 0
 541 007a 6420     		movs	r0, #100
 542              		.loc 1 289 0
 543 007c 53B3     		cbz	r3, .L40
 544              	.L44:
 545              		.loc 1 293 0
 546 007e FFF7FEFF 		bl	chThdSleep
 547              		.loc 1 294 0
 548 0082 6B69     		ldr	r3, [r5, #20]
 549              		.loc 1 300 0
 550 0084 2068     		ldr	r0, [r4, #0]
 551              		.loc 1 295 0
 552 0086 87F80080 		strb	r8, [r7, #0]
 553              		.loc 1 294 0
 554 008a 83F4004E 		eor	lr, r3, #32768
 555              		.loc 1 300 0
 556 008e 1B4A     		ldr	r2, .L45+20
 557              		.loc 1 294 0
 558 0090 C5F814E0 		str	lr, [r5, #20]
 559              		.loc 1 300 0
 560 0094 4023     		movs	r3, #64
 561 0096 0221     		movs	r1, #2
 562 0098 FFF7FEFF 		bl	usbPrepareReceive
 563              	.LBB36:
ARM GAS  /tmp/cc0ZwGXP.s 			page 11


 564              		.loc 1 301 0
 565 009c 2023     		movs	r3, #32
 566              	.LVL52:
 567              	@ 301 "main.c" 1
 568 009e 83F31188 		msr     BASEPRI, r3
 569              	@ 0 "" 2
 570              	.LVL53:
 571              		.thumb
 572              	.LBE36:
 573              		.loc 1 302 0
 574 00a2 0221     		movs	r1, #2
 575 00a4 2068     		ldr	r0, [r4, #0]
 576 00a6 FFF7FEFF 		bl	usbStartReceiveI
 577              	.LVL54:
 578              	.LBB37:
 579              		.loc 1 303 0
 580 00aa 0023     		movs	r3, #0
 581              	.LVL55:
 582              	@ 303 "main.c" 1
 583 00ac 83F31188 		msr     BASEPRI, r3
 584              	@ 0 "" 2
 585              	.LVL56:
 586              		.thumb
 587              	.LBE37:
 588              		.loc 1 309 0
 589 00b0 0121     		movs	r1, #1
 590 00b2 2068     		ldr	r0, [r4, #0]
 591 00b4 0C4A     		ldr	r2, .L45
 592 00b6 4FF48073 		mov	r3, #256
 593              	.LVL57:
 594 00ba FFF7FEFF 		bl	usbPrepareTransmit
 595              	.LBB38:
 596              		.loc 1 310 0
 597 00be 2023     		movs	r3, #32
 598              	.LVL58:
 599              	@ 310 "main.c" 1
 600 00c0 83F31188 		msr     BASEPRI, r3
 601              	@ 0 "" 2
 602              	.LVL59:
 603              		.thumb
 604              	.LBE38:
 605              		.loc 1 311 0
 606 00c4 0121     		movs	r1, #1
 607 00c6 2068     		ldr	r0, [r4, #0]
 608 00c8 FFF7FEFF 		bl	usbStartTransmitI
 609              	.LVL60:
 610              	.LBB39:
 611              		.loc 1 312 0
 612 00cc 0023     		movs	r3, #0
 613              	.LVL61:
 614              	@ 312 "main.c" 1
 615 00ce 83F31188 		msr     BASEPRI, r3
 616              	@ 0 "" 2
 617              	.LVL62:
 618              		.thumb
 619              	.LBE39:
 620              		.loc 1 313 0
ARM GAS  /tmp/cc0ZwGXP.s 			page 12


 621 00d2 3370     		strb	r3, [r6, #0]
 622              	.L40:
 623              		.loc 1 290 0
 624 00d4 4FF47A70 		mov	r0, #1000
 625 00d8 FFF7FEFF 		bl	chThdSleep
 626              	.LVL63:
 627 00dc 3378     		ldrb	r3, [r6, #0]	@ zero_extendqisi2
 628              		.loc 1 293 0
 629 00de 6420     		movs	r0, #100
 630              		.loc 1 289 0
 631 00e0 002B     		cmp	r3, #0
 632 00e2 CCD1     		bne	.L44
 633 00e4 F6E7     		b	.L40
 634              	.L46:
 635 00e6 00BF     		.align	2
 636              	.L45:
 637 00e8 00000000 		.word	.LANCHOR8
 638 00ec 00000000 		.word	.LANCHOR9
 639 00f0 00000000 		.word	.LANCHOR10
 640 00f4 00000000 		.word	.LANCHOR6
 641 00f8 00000000 		.word	.LANCHOR3
 642 00fc 00000000 		.word	.LANCHOR7
 643              		.cfi_endproc
 644              	.LFE123:
 645              		.size	main, .-main
 646              		.global	config
 647              		.global	ep2outstate
 648              		.global	usbStatus
 649              		.global	initUSB
 650              		.global	usbp
 651              		.global	transferBuf
 652              		.global	receiveBuf
 653              		.section	.rodata.ep1config,"a",%progbits
 654              		.align	2
 655              		.set	.LANCHOR4,. + 0
 656              		.type	ep1config, %object
 657              		.size	ep1config, 36
 658              	ep1config:
 659 0000 02000000 		.word	2
 660 0004 00000000 		.word	0
 661 0008 00000000 		.word	dataTransmitted
 662 000c 00000000 		.word	0
 663 0010 4000     		.short	64
 664 0012 0000     		.short	0
 665 0014 00000000 		.word	ep1instate
 666 0018 00000000 		.word	0
 667 001c 0400     		.short	4
 668 001e 0000     		.space	2
 669 0020 00000000 		.word	0
 670              		.section	.data.usbp,"aw",%progbits
 671              		.align	2
 672              		.set	.LANCHOR9,. + 0
 673              		.type	usbp, %object
 674              		.size	usbp, 4
 675              	usbp:
 676 0000 00000000 		.word	USBD1
 677              		.section	.rodata.stringVendor,"a",%progbits
ARM GAS  /tmp/cc0ZwGXP.s 			page 13


 678              		.align	2
 679              		.type	stringVendor, %object
 680              		.size	stringVendor, 46
 681              	stringVendor:
 682 0000 2E       		.byte	46
 683 0001 03       		.byte	3
 684 0002 4F       		.byte	79
 685 0003 00       		.byte	0
 686 0004 70       		.byte	112
 687 0005 00       		.byte	0
 688 0006 65       		.byte	101
 689 0007 00       		.byte	0
 690 0008 6E       		.byte	110
 691 0009 00       		.byte	0
 692 000a 47       		.byte	71
 693 000b 00       		.byte	0
 694 000c 61       		.byte	97
 695 000d 00       		.byte	0
 696 000e 72       		.byte	114
 697 000f 00       		.byte	0
 698 0010 61       		.byte	97
 699 0011 00       		.byte	0
 700 0012 67       		.byte	103
 701 0013 00       		.byte	0
 702 0014 65       		.byte	101
 703 0015 00       		.byte	0
 704 0016 73       		.byte	115
 705 0017 00       		.byte	0
 706 0018 20       		.byte	32
 707 0019 00       		.byte	0
 708 001a 56       		.byte	86
 709 001b 00       		.byte	0
 710 001c 52       		.byte	82
 711 001d 00       		.byte	0
 712 001e 4C       		.byte	76
 713 001f 00       		.byte	0
 714 0020 20       		.byte	32
 715 0021 00       		.byte	0
 716 0022 48       		.byte	72
 717 0023 00       		.byte	0
 718 0024 69       		.byte	105
 719 0025 00       		.byte	0
 720 0026 76       		.byte	118
 721 0027 00       		.byte	0
 722 0028 65       		.byte	101
 723 0029 00       		.byte	0
 724 002a 31       		.byte	49
 725 002b 00       		.byte	0
 726 002c 33       		.byte	51
 727 002d 00       		.byte	0
 728 002e 0000     		.section	.bss.ep1instate,"aw",%nobits
 729              		.align	2
 730              		.type	ep1instate, %object
 731              		.size	ep1instate, 16
 732              	ep1instate:
 733 0000 00000000 		.space	16
 733      00000000 
ARM GAS  /tmp/cc0ZwGXP.s 			page 14


 733      00000000 
 733      00000000 
 734              		.section	.bss.usbStatus,"aw",%nobits
 735              		.set	.LANCHOR3,. + 0
 736              		.type	usbStatus, %object
 737              		.size	usbStatus, 1
 738              	usbStatus:
 739 0000 00       		.space	1
 740              		.section	.rodata.vcom_configuration_descriptor,"a",%progbits
 741              		.align	2
 742              		.set	.LANCHOR1,. + 0
 743              		.type	vcom_configuration_descriptor, %object
 744              		.size	vcom_configuration_descriptor, 8
 745              	vcom_configuration_descriptor:
 746 0000 20000000 		.word	32
 747 0004 00000000 		.word	vcom_configuration_descriptor_data
 748              		.section	.rodata.ep2config,"a",%progbits
 749              		.align	2
 750              		.set	.LANCHOR5,. + 0
 751              		.type	ep2config, %object
 752              		.size	ep2config, 36
 753              	ep2config:
 754 0000 02000000 		.word	2
 755 0004 00000000 		.word	0
 756 0008 00000000 		.word	0
 757 000c 00000000 		.word	dataReceived
 758 0010 0000     		.short	0
 759 0012 4000     		.short	64
 760 0014 00000000 		.word	0
 761 0018 00000000 		.word	ep2outstate
 762 001c 0100     		.short	1
 763 001e 0000     		.space	2
 764 0020 00000000 		.word	0
 765              		.section	.rodata.stringSerialNumber,"a",%progbits
 766              		.align	2
 767              		.type	stringSerialNumber, %object
 768              		.size	stringSerialNumber, 12
 769              	stringSerialNumber:
 770 0000 0C       		.byte	12
 771 0001 03       		.byte	3
 772 0002 36       		.byte	54
 773 0003 00       		.byte	0
 774 0004 2E       		.byte	46
 775 0005 00       		.byte	0
 776 0006 36       		.byte	54
 777 0007 00       		.byte	0
 778 0008 2E       		.byte	46
 779 0009 00       		.byte	0
 780 000a 36       		.byte	54
 781 000b 00       		.byte	0
 782              		.section	.rodata.stringNotFound,"a",%progbits
 783              		.align	2
 784              		.type	stringNotFound, %object
 785              		.size	stringNotFound, 34
 786              	stringNotFound:
 787 0000 22       		.byte	34
 788 0001 03       		.byte	3
ARM GAS  /tmp/cc0ZwGXP.s 			page 15


 789 0002 53       		.byte	83
 790 0003 00       		.byte	0
 791 0004 74       		.byte	116
 792 0005 00       		.byte	0
 793 0006 72       		.byte	114
 794 0007 00       		.byte	0
 795 0008 69       		.byte	105
 796 0009 00       		.byte	0
 797 000a 6E       		.byte	110
 798 000b 00       		.byte	0
 799 000c 67       		.byte	103
 800 000d 00       		.byte	0
 801 000e 20       		.byte	32
 802 000f 00       		.byte	0
 803 0010 6E       		.byte	110
 804 0011 00       		.byte	0
 805 0012 6F       		.byte	111
 806 0013 00       		.byte	0
 807 0014 74       		.byte	116
 808 0015 00       		.byte	0
 809 0016 20       		.byte	32
 810 0017 00       		.byte	0
 811 0018 66       		.byte	102
 812 0019 00       		.byte	0
 813 001a 6F       		.byte	111
 814 001b 00       		.byte	0
 815 001c 75       		.byte	117
 816 001d 00       		.byte	0
 817 001e 6E       		.byte	110
 818 001f 00       		.byte	0
 819 0020 64       		.byte	100
 820 0021 00       		.byte	0
 821 0022 0000     		.section	.rodata.stringDeviceDescriptor,"a",%progbits
 822              		.align	2
 823              		.type	stringDeviceDescriptor, %object
 824              		.size	stringDeviceDescriptor, 36
 825              	stringDeviceDescriptor:
 826 0000 24       		.byte	36
 827 0001 03       		.byte	3
 828 0002 43       		.byte	67
 829 0003 00       		.byte	0
 830 0004 41       		.byte	65
 831 0005 00       		.byte	0
 832 0006 4E       		.byte	78
 833 0007 00       		.byte	0
 834 0008 20       		.byte	32
 835 0009 00       		.byte	0
 836 000a 69       		.byte	105
 837 000b 00       		.byte	0
 838 000c 6E       		.byte	110
 839 000d 00       		.byte	0
 840 000e 20       		.byte	32
 841 000f 00       		.byte	0
 842 0010 74       		.byte	116
 843 0011 00       		.byte	0
 844 0012 68       		.byte	104
 845 0013 00       		.byte	0
ARM GAS  /tmp/cc0ZwGXP.s 			page 16


 846 0014 65       		.byte	101
 847 0015 00       		.byte	0
 848 0016 20       		.byte	32
 849 0017 00       		.byte	0
 850 0018 4D       		.byte	77
 851 0019 00       		.byte	0
 852 001a 69       		.byte	105
 853 001b 00       		.byte	0
 854 001c 64       		.byte	100
 855 001d 00       		.byte	0
 856 001e 64       		.byte	100
 857 001f 00       		.byte	0
 858 0020 6C       		.byte	108
 859 0021 00       		.byte	0
 860 0022 65       		.byte	101
 861 0023 00       		.byte	0
 862              		.section	.bss.initUSB,"aw",%nobits
 863              		.set	.LANCHOR6,. + 0
 864              		.type	initUSB, %object
 865              		.size	initUSB, 1
 866              	initUSB:
 867 0000 00       		.space	1
 868              		.section	.bss.transferBuf,"aw",%nobits
 869              		.align	2
 870              		.set	.LANCHOR8,. + 0
 871              		.type	transferBuf, %object
 872              		.size	transferBuf, 256
 873              	transferBuf:
 874 0000 00000000 		.space	256
 874      00000000 
 874      00000000 
 874      00000000 
 874      00000000 
 875              		.section	.rodata.stringLanguage,"a",%progbits
 876              		.align	2
 877              		.type	stringLanguage, %object
 878              		.size	stringLanguage, 4
 879              	stringLanguage:
 880 0000 04       		.byte	4
 881 0001 03       		.byte	3
 882 0002 09       		.byte	9
 883 0003 04       		.byte	4
 884              		.section	.bss.receiveBuf,"aw",%nobits
 885              		.align	2
 886              		.set	.LANCHOR7,. + 0
 887              		.type	receiveBuf, %object
 888              		.size	receiveBuf, 64
 889              	receiveBuf:
 890 0000 00000000 		.space	64
 890      00000000 
 890      00000000 
 890      00000000 
 890      00000000 
 891              		.section	.bss.ep2outstate,"aw",%nobits
 892              		.align	2
 893              		.type	ep2outstate, %object
 894              		.size	ep2outstate, 16
ARM GAS  /tmp/cc0ZwGXP.s 			page 17


 895              	ep2outstate:
 896 0000 00000000 		.space	16
 896      00000000 
 896      00000000 
 896      00000000 
 897              		.section	.rodata.config,"a",%progbits
 898              		.align	2
 899              		.set	.LANCHOR10,. + 0
 900              		.type	config, %object
 901              		.size	config, 16
 902              	config:
 903 0000 00000000 		.word	usb_event
 904 0004 00000000 		.word	get_descriptor
 905 0008 00000000 		.word	requestsHook
 906 000c 00000000 		.word	0
 907              		.section	.rodata.vcom_device_descriptor_data,"a",%progbits
 908              		.align	2
 909              		.type	vcom_device_descriptor_data, %object
 910              		.size	vcom_device_descriptor_data, 18
 911              	vcom_device_descriptor_data:
 912 0000 12       		.byte	18
 913 0001 01       		.byte	1
 914 0002 10       		.byte	16
 915 0003 01       		.byte	1
 916 0004 FF       		.byte	-1
 917 0005 00       		.byte	0
 918 0006 00       		.byte	0
 919 0007 40       		.byte	64
 920 0008 83       		.byte	-125
 921 0009 04       		.byte	4
 922 000a 0F       		.byte	15
 923 000b F0       		.byte	-16
 924 000c 00       		.byte	0
 925 000d 02       		.byte	2
 926 000e 01       		.byte	1
 927 000f 02       		.byte	2
 928 0010 03       		.byte	3
 929 0011 01       		.byte	1
 930 0012 0000     		.section	.rodata.vcom_strings,"a",%progbits
 931              		.align	2
 932              		.set	.LANCHOR2,. + 0
 933              		.type	vcom_strings, %object
 934              		.size	vcom_strings, 40
 935              	vcom_strings:
 936 0000 04000000 		.word	4
 937 0004 00000000 		.word	stringLanguage
 938 0008 2E000000 		.word	46
 939 000c 00000000 		.word	stringVendor
 940 0010 24000000 		.word	36
 941 0014 00000000 		.word	stringDeviceDescriptor
 942 0018 0C000000 		.word	12
 943 001c 00000000 		.word	stringSerialNumber
 944 0020 22000000 		.word	34
 945 0024 00000000 		.word	stringNotFound
 946              		.section	.rodata.vcom_configuration_descriptor_data,"a",%progbits
 947              		.align	2
 948              		.type	vcom_configuration_descriptor_data, %object
ARM GAS  /tmp/cc0ZwGXP.s 			page 18


 949              		.size	vcom_configuration_descriptor_data, 32
 950              	vcom_configuration_descriptor_data:
 951 0000 09       		.byte	9
 952 0001 02       		.byte	2
 953 0002 20       		.byte	32
 954 0003 00       		.byte	0
 955 0004 01       		.byte	1
 956 0005 01       		.byte	1
 957 0006 00       		.byte	0
 958 0007 C0       		.byte	-64
 959 0008 32       		.byte	50
 960 0009 09       		.byte	9
 961 000a 04       		.byte	4
 962 000b 00       		.byte	0
 963 000c 00       		.byte	0
 964 000d 02       		.byte	2
 965 000e FF       		.byte	-1
 966 000f 00       		.byte	0
 967 0010 00       		.byte	0
 968 0011 00       		.byte	0
 969 0012 07       		.byte	7
 970 0013 05       		.byte	5
 971 0014 81       		.byte	-127
 972 0015 02       		.byte	2
 973 0016 40       		.byte	64
 974 0017 00       		.byte	0
 975 0018 00       		.byte	0
 976 0019 07       		.byte	7
 977 001a 05       		.byte	5
 978 001b 02       		.byte	2
 979 001c 02       		.byte	2
 980 001d 40       		.byte	64
 981 001e 00       		.byte	0
 982 001f 00       		.byte	0
 983              		.section	.rodata.vcom_device_descriptor,"a",%progbits
 984              		.align	2
 985              		.set	.LANCHOR0,. + 0
 986              		.type	vcom_device_descriptor, %object
 987              		.size	vcom_device_descriptor, 8
 988              	vcom_device_descriptor:
 989 0000 12000000 		.word	18
 990 0004 00000000 		.word	vcom_device_descriptor_data
 991              		.text
 992              	.Letext0:
 993              		.file 2 "/home/craig/gcc/arm/lib/gcc/arm-none-eabi/4.6.2/include/stddef.h"
 994              		.file 3 "/home/craig/gcc/arm/lib/gcc/arm-none-eabi/4.6.2/../../../../arm-none-eabi/include/stdint.
 995              		.file 4 "../../os/ports/GCC/ARMCMx/chtypes.h"
 996              		.file 5 "../../os/kernel/include/chlists.h"
 997              		.file 6 "../../os/kernel/include/chthreads.h"
 998              		.file 7 "../../os/ports/GCC/ARMCMx/chcore_v7m.h"
 999              		.file 8 "../../os/kernel/include/chmtx.h"
 1000              		.file 9 "../../os/kernel/include/chqueues.h"
 1001              		.file 10 "../../os/hal/platforms/STM32/GPIOv2/pal_lld.h"
 1002              		.file 11 "../../os/hal/include/usb.h"
 1003              		.file 12 "../../os/hal/platforms/STM32/OTGv1/usb_lld.h"
 1004              		.file 13 "../../os/hal/platforms/STM32/OTGv1/stm32_otg.h"
 1005              		.file 14 "../../os/ports/common/ARMCMx/CMSIS/include/core_cm4.h"
ARM GAS  /tmp/cc0ZwGXP.s 			page 19


 1006              		.file 15 "usbdescriptor.h"