ARM GAS  /tmp/cc9clwKD.s 			page 1


   1              		.syntax unified
   2              		.cpu cortex-m4
   3              		.fpu softvfp
   4              		.eabi_attribute 20, 1
   5              		.eabi_attribute 21, 1
   6              		.eabi_attribute 23, 3
   7              		.eabi_attribute 24, 1
   8              		.eabi_attribute 25, 1
   9              		.eabi_attribute 26, 1
  10              		.eabi_attribute 30, 2
  11              		.eabi_attribute 18, 4
  12              		.thumb
  13              		.file	"pwm.c"
  14              		.text
  15              	.Ltext0:
  16              		.cfi_sections	.debug_frame
  17              		.section	.text.pwmInit,"ax",%progbits
  18              		.align	2
  19              		.p2align 4,,15
  20              		.global	pwmInit
  21              		.thumb
  22              		.thumb_func
  23              		.type	pwmInit, %function
  24              	pwmInit:
  25              	.LFB118:
  26              		.file 1 "../../os/hal/src/pwm.c"
  27              		.loc 1 61 0
  28              		.cfi_startproc
  29              		@ args = 0, pretend = 0, frame = 0
  30              		@ frame_needed = 0, uses_anonymous_args = 0
  31              		@ link register save eliminated.
  32              		.loc 1 64 0
  33              		.loc 1 63 0
  34 0000 FFF7FEBF 		b	pwm_lld_init
  35              		.cfi_endproc
  36              	.LFE118:
  37              		.size	pwmInit, .-pwmInit
  38 0004 AFF30080 		.section	.text.pwmObjectInit,"ax",%progbits
  38      AFF30080 
  38      AFF30080 
  39              		.align	2
  40              		.p2align 4,,15
  41              		.global	pwmObjectInit
  42              		.thumb
  43              		.thumb_func
  44              		.type	pwmObjectInit, %function
  45              	pwmObjectInit:
  46              	.LFB119:
  47              		.loc 1 73 0
  48              		.cfi_startproc
  49              		@ args = 0, pretend = 0, frame = 0
  50              		@ frame_needed = 0, uses_anonymous_args = 0
  51              		@ link register save eliminated.
  52              	.LVL0:
  53              		.loc 1 75 0
  54 0000 0123     		movs	r3, #1
  55 0002 0370     		strb	r3, [r0, #0]
ARM GAS  /tmp/cc9clwKD.s 			page 2


  56              		.loc 1 76 0
  57 0004 0023     		movs	r3, #0
  58 0006 4360     		str	r3, [r0, #4]
  59              		.loc 1 80 0
  60 0008 7047     		bx	lr
  61              		.cfi_endproc
  62              	.LFE119:
  63              		.size	pwmObjectInit, .-pwmObjectInit
  64 000a 00BFAFF3 		.section	.text.pwmStart,"ax",%progbits
  64      0080
  65              		.align	2
  66              		.p2align 4,,15
  67              		.global	pwmStart
  68              		.thumb
  69              		.thumb_func
  70              		.type	pwmStart, %function
  71              	pwmStart:
  72              	.LFB120:
  73              		.loc 1 92 0
  74              		.cfi_startproc
  75              		@ args = 0, pretend = 0, frame = 0
  76              		@ frame_needed = 0, uses_anonymous_args = 0
  77              	.LVL1:
  78 0000 10B5     		push	{r4, lr}
  79              	.LCFI0:
  80              		.cfi_def_cfa_offset 8
  81              		.cfi_offset 14, -4
  82              		.cfi_offset 4, -8
  83              	.LBB2:
  84              		.loc 1 96 0
  85 0002 2023     		movs	r3, #32
  86              	.LVL2:
  87              	.LBE2:
  88              		.loc 1 92 0
  89 0004 0446     		mov	r4, r0
  90              	.LBB3:
  91              		.loc 1 96 0
  92              	@ 96 "../../os/hal/src/pwm.c" 1
  93 0006 83F31188 		msr     BASEPRI, r3
  94              	@ 0 "" 2
  95              	.LVL3:
  96              		.thumb
  97              	.LBE3:
  98              		.loc 1 100 0
  99 000a 8B88     		ldrh	r3, [r1, #4]
 100              	.LVL4:
 101              		.loc 1 99 0
 102 000c 4160     		str	r1, [r0, #4]
 103              		.loc 1 100 0
 104 000e 0381     		strh	r3, [r0, #8]	@ movhi
 105              		.loc 1 101 0
 106 0010 FFF7FEFF 		bl	pwm_lld_start
 107              	.LVL5:
 108              		.loc 1 102 0
 109 0014 0223     		movs	r3, #2
 110 0016 2370     		strb	r3, [r4, #0]
 111              	.LBB4:
ARM GAS  /tmp/cc9clwKD.s 			page 3


 112              		.loc 1 103 0
 113 0018 0023     		movs	r3, #0
 114              	.LVL6:
 115              	@ 103 "../../os/hal/src/pwm.c" 1
 116 001a 83F31188 		msr     BASEPRI, r3
 117              	@ 0 "" 2
 118              	.LVL7:
 119              		.thumb
 120              	.LBE4:
 121              		.loc 1 104 0
 122 001e 10BD     		pop	{r4, pc}
 123              		.cfi_endproc
 124              	.LFE120:
 125              		.size	pwmStart, .-pwmStart
 126              		.section	.text.pwmStop,"ax",%progbits
 127              		.align	2
 128              		.p2align 4,,15
 129              		.global	pwmStop
 130              		.thumb
 131              		.thumb_func
 132              		.type	pwmStop, %function
 133              	pwmStop:
 134              	.LFB121:
 135              		.loc 1 113 0
 136              		.cfi_startproc
 137              		@ args = 0, pretend = 0, frame = 0
 138              		@ frame_needed = 0, uses_anonymous_args = 0
 139              	.LVL8:
 140 0000 10B5     		push	{r4, lr}
 141              	.LCFI1:
 142              		.cfi_def_cfa_offset 8
 143              		.cfi_offset 14, -4
 144              		.cfi_offset 4, -8
 145              	.LBB5:
 146              		.loc 1 117 0
 147 0002 2023     		movs	r3, #32
 148              	.LVL9:
 149              	.LBE5:
 150              		.loc 1 113 0
 151 0004 0446     		mov	r4, r0
 152              	.LBB6:
 153              		.loc 1 117 0
 154              	@ 117 "../../os/hal/src/pwm.c" 1
 155 0006 83F31188 		msr     BASEPRI, r3
 156              	@ 0 "" 2
 157              	.LVL10:
 158              		.thumb
 159              	.LBE6:
 160              		.loc 1 120 0
 161 000a FFF7FEFF 		bl	pwm_lld_stop
 162              	.LVL11:
 163              		.loc 1 121 0
 164 000e 0123     		movs	r3, #1
 165 0010 2370     		strb	r3, [r4, #0]
 166              	.LBB7:
 167              		.loc 1 122 0
 168 0012 0023     		movs	r3, #0
ARM GAS  /tmp/cc9clwKD.s 			page 4


 169              	.LVL12:
 170              	@ 122 "../../os/hal/src/pwm.c" 1
 171 0014 83F31188 		msr     BASEPRI, r3
 172              	@ 0 "" 2
 173              	.LVL13:
 174              		.thumb
 175              	.LBE7:
 176              		.loc 1 123 0
 177 0018 10BD     		pop	{r4, pc}
 178              		.cfi_endproc
 179              	.LFE121:
 180              		.size	pwmStop, .-pwmStop
 181 001a 00BFAFF3 		.section	.text.pwmChangePeriod,"ax",%progbits
 181      0080
 182              		.align	2
 183              		.p2align 4,,15
 184              		.global	pwmChangePeriod
 185              		.thumb
 186              		.thumb_func
 187              		.type	pwmChangePeriod, %function
 188              	pwmChangePeriod:
 189              	.LFB122:
 190              		.loc 1 140 0
 191              		.cfi_startproc
 192              		@ args = 0, pretend = 0, frame = 0
 193              		@ frame_needed = 0, uses_anonymous_args = 0
 194              		@ link register save eliminated.
 195              	.LVL14:
 196              	.LBB8:
 197              		.loc 1 144 0
 198 0000 2023     		movs	r3, #32
 199              	.LVL15:
 200              	@ 144 "../../os/hal/src/pwm.c" 1
 201 0002 83F31188 		msr     BASEPRI, r3
 202              	@ 0 "" 2
 203              	.LVL16:
 204              		.thumb
 205              	.LBE8:
 206              		.loc 1 147 0
 207 0006 0369     		ldr	r3, [r0, #16]
 208              	.LVL17:
 209 0008 0181     		strh	r1, [r0, #8]	@ movhi
 210 000a 0139     		subs	r1, r1, #1
 211              	.LVL18:
 212 000c 89B2     		uxth	r1, r1
 213 000e D962     		str	r1, [r3, #44]
 214              	.LBB9:
 215              		.loc 1 148 0
 216 0010 0023     		movs	r3, #0
 217              	.LVL19:
 218              	@ 148 "../../os/hal/src/pwm.c" 1
 219 0012 83F31188 		msr     BASEPRI, r3
 220              	@ 0 "" 2
 221              	.LVL20:
 222              		.thumb
 223              	.LBE9:
 224              		.loc 1 149 0
ARM GAS  /tmp/cc9clwKD.s 			page 5


 225 0016 7047     		bx	lr
 226              		.cfi_endproc
 227              	.LFE122:
 228              		.size	pwmChangePeriod, .-pwmChangePeriod
 229 0018 AFF30080 		.section	.text.pwmEnableChannel,"ax",%progbits
 229      AFF30080 
 230              		.align	2
 231              		.p2align 4,,15
 232              		.global	pwmEnableChannel
 233              		.thumb
 234              		.thumb_func
 235              		.type	pwmEnableChannel, %function
 236              	pwmEnableChannel:
 237              	.LFB123:
 238              		.loc 1 167 0
 239              		.cfi_startproc
 240              		@ args = 0, pretend = 0, frame = 0
 241              		@ frame_needed = 0, uses_anonymous_args = 0
 242              	.LVL21:
 243 0000 08B5     		push	{r3, lr}
 244              	.LCFI2:
 245              		.cfi_def_cfa_offset 8
 246              		.cfi_offset 14, -4
 247              		.cfi_offset 3, -8
 248              	.LBB10:
 249              		.loc 1 172 0
 250 0002 2023     		movs	r3, #32
 251              	.LVL22:
 252              	@ 172 "../../os/hal/src/pwm.c" 1
 253 0004 83F31188 		msr     BASEPRI, r3
 254              	@ 0 "" 2
 255              	.LVL23:
 256              		.thumb
 257              	.LBE10:
 258              		.loc 1 175 0
 259 0008 FFF7FEFF 		bl	pwm_lld_enable_channel
 260              	.LVL24:
 261              	.LBB11:
 262              		.loc 1 176 0
 263 000c 0023     		movs	r3, #0
 264              	.LVL25:
 265              	@ 176 "../../os/hal/src/pwm.c" 1
 266 000e 83F31188 		msr     BASEPRI, r3
 267              	@ 0 "" 2
 268              	.LVL26:
 269              		.thumb
 270              	.LBE11:
 271              		.loc 1 177 0
 272 0012 08BD     		pop	{r3, pc}
 273              		.cfi_endproc
 274              	.LFE123:
 275              		.size	pwmEnableChannel, .-pwmEnableChannel
 276 0014 AFF30080 		.section	.text.pwmDisableChannel,"ax",%progbits
 276      AFF30080 
 276      AFF30080 
 277              		.align	2
 278              		.p2align 4,,15
ARM GAS  /tmp/cc9clwKD.s 			page 6


 279              		.global	pwmDisableChannel
 280              		.thumb
 281              		.thumb_func
 282              		.type	pwmDisableChannel, %function
 283              	pwmDisableChannel:
 284              	.LFB124:
 285              		.loc 1 193 0
 286              		.cfi_startproc
 287              		@ args = 0, pretend = 0, frame = 0
 288              		@ frame_needed = 0, uses_anonymous_args = 0
 289              	.LVL27:
 290 0000 08B5     		push	{r3, lr}
 291              	.LCFI3:
 292              		.cfi_def_cfa_offset 8
 293              		.cfi_offset 14, -4
 294              		.cfi_offset 3, -8
 295              	.LBB12:
 296              		.loc 1 198 0
 297 0002 2023     		movs	r3, #32
 298              	.LVL28:
 299              	@ 198 "../../os/hal/src/pwm.c" 1
 300 0004 83F31188 		msr     BASEPRI, r3
 301              	@ 0 "" 2
 302              	.LVL29:
 303              		.thumb
 304              	.LBE12:
 305              		.loc 1 201 0
 306 0008 FFF7FEFF 		bl	pwm_lld_disable_channel
 307              	.LVL30:
 308              	.LBB13:
 309              		.loc 1 202 0
 310 000c 0023     		movs	r3, #0
 311              	.LVL31:
 312              	@ 202 "../../os/hal/src/pwm.c" 1
 313 000e 83F31188 		msr     BASEPRI, r3
 314              	@ 0 "" 2
 315              	.LVL32:
 316              		.thumb
 317              	.LBE13:
 318              		.loc 1 203 0
 319 0012 08BD     		pop	{r3, pc}
 320              		.cfi_endproc
 321              	.LFE124:
 322              		.size	pwmDisableChannel, .-pwmDisableChannel
 323 0014 AFF30080 		.text
 323      AFF30080 
 323      AFF30080 
 324              	.Letext0:
 325              		.file 2 "/home/craig/gcc/arm/lib/gcc/arm-none-eabi/4.6.2/../../../../arm-none-eabi/include/stdint.
 326              		.file 3 "../../os/hal/platforms/STM32/stm32.h"
 327              		.file 4 "../../os/hal/include/pwm.h"
 328              		.file 5 "../../os/hal/platforms/STM32/pwm_lld.h"
 329              		.file 6 "../../os/ports/common/ARMCMx/CMSIS/include/core_cm4.h"