ARM GAS  /tmp/ccJAudan.s 			page 1


   1              		.syntax unified
   2              		.cpu cortex-m4
   3              		.fpu softvfp
   4              		.eabi_attribute 20, 1
   5              		.eabi_attribute 21, 1
   6              		.eabi_attribute 23, 3
   7              		.eabi_attribute 24, 1
   8              		.eabi_attribute 25, 1
   9              		.eabi_attribute 26, 1
  10              		.eabi_attribute 30, 2
  11              		.eabi_attribute 18, 4
  12              		.thumb
  13              		.file	"pwm_lld.c"
  14              		.text
  15              	.Ltext0:
  16              		.cfi_sections	.debug_frame
  17              		.section	.text.VectorB8,"ax",%progbits
  18              		.align	2
  19              		.p2align 4,,15
  20              		.global	VectorB8
  21              		.thumb
  22              		.thumb_func
  23              		.type	VectorB8, %function
  24              	VectorB8:
  25              	.LFB119:
  26              		.file 1 "../../os/hal/platforms/STM32/pwm_lld.c"
  27              		.loc 1 227 0
  28              		.cfi_startproc
  29              		@ args = 0, pretend = 0, frame = 0
  30              		@ frame_needed = 0, uses_anonymous_args = 0
  31              	.LVL0:
  32 0000 38B5     		push	{r3, r4, r5, lr}
  33              	.LCFI0:
  34              		.cfi_def_cfa_offset 16
  35              		.cfi_offset 14, -4
  36              		.cfi_offset 5, -8
  37              		.cfi_offset 4, -12
  38              		.cfi_offset 3, -16
  39              	.LBB4:
  40              	.LBB5:
  41              		.loc 1 107 0
  42 0002 174D     		ldr	r5, .L12
  43 0004 2B69     		ldr	r3, [r5, #16]
  44 0006 1A8A     		ldrh	r2, [r3, #16]
  45 0008 9C89     		ldrh	r4, [r3, #12]
  46 000a A4B2     		uxth	r4, r4
  47 000c 1440     		ands	r4, r4, r2
  48              	.LVL1:
  49              		.loc 1 108 0
  50 000e E243     		mvns	r2, r4
  51 0010 92B2     		uxth	r2, r2
  52 0012 1A82     		strh	r2, [r3, #16]	@ movhi
  53              		.loc 1 109 0
  54 0014 A307     		lsls	r3, r4, #30
  55 0016 1ED4     		bmi	.L8
  56              	.L2:
  57              		.loc 1 111 0
ARM GAS  /tmp/ccJAudan.s 			page 2


  58 0018 6007     		lsls	r0, r4, #29
  59 001a 17D4     		bmi	.L9
  60              	.L3:
  61              		.loc 1 113 0
  62 001c 2107     		lsls	r1, r4, #28
  63 001e 10D4     		bmi	.L10
  64              	.L4:
  65              		.loc 1 115 0
  66 0020 E206     		lsls	r2, r4, #27
  67 0022 09D4     		bmi	.L11
  68              	.L5:
  69              		.loc 1 117 0
  70 0024 E307     		lsls	r3, r4, #31
  71 0026 03D5     		bpl	.L6
  72              		.loc 1 118 0
  73 0028 6B68     		ldr	r3, [r5, #4]
  74 002a 0D48     		ldr	r0, .L12
  75 002c 9B68     		ldr	r3, [r3, #8]
  76 002e 9847     		blx	r3
  77              	.L6:
  78              	.LBE5:
  79              	.LBE4:
  80              		.loc 1 234 0
  81 0030 BDE83840 		pop	{r3, r4, r5, lr}
  82              		.loc 1 233 0
  83 0034 FFF7FEBF 		b	_port_irq_epilogue
  84              	.L11:
  85              	.LBB7:
  86              	.LBB6:
  87              		.loc 1 116 0
  88 0038 6B68     		ldr	r3, [r5, #4]
  89 003a 0948     		ldr	r0, .L12
  90 003c 9B6A     		ldr	r3, [r3, #40]
  91 003e 9847     		blx	r3
  92 0040 F0E7     		b	.L5
  93              	.L10:
  94              		.loc 1 114 0
  95 0042 6B68     		ldr	r3, [r5, #4]
  96 0044 0648     		ldr	r0, .L12
  97 0046 1B6A     		ldr	r3, [r3, #32]
  98 0048 9847     		blx	r3
  99 004a E9E7     		b	.L4
 100              	.L9:
 101              		.loc 1 112 0
 102 004c 6B68     		ldr	r3, [r5, #4]
 103 004e 0448     		ldr	r0, .L12
 104 0050 9B69     		ldr	r3, [r3, #24]
 105 0052 9847     		blx	r3
 106 0054 E2E7     		b	.L3
 107              	.L8:
 108              		.loc 1 110 0
 109 0056 6B68     		ldr	r3, [r5, #4]
 110 0058 2846     		mov	r0, r5
 111 005a 1B69     		ldr	r3, [r3, #16]
 112 005c 9847     		blx	r3
 113 005e DBE7     		b	.L2
 114              	.L13:
ARM GAS  /tmp/ccJAudan.s 			page 3


 115              		.align	2
 116              	.L12:
 117 0060 00000000 		.word	.LANCHOR0
 118              	.LBE6:
 119              	.LBE7:
 120              		.cfi_endproc
 121              	.LFE119:
 122              		.size	VectorB8, .-VectorB8
 123 0064 AFF30080 		.section	.text.pwm_lld_init,"ax",%progbits
 123      AFF30080 
 123      AFF30080 
 124              		.align	2
 125              		.p2align 4,,15
 126              		.global	pwm_lld_init
 127              		.thumb
 128              		.thumb_func
 129              		.type	pwm_lld_init, %function
 130              	pwm_lld_init:
 131              	.LFB120:
 132              		.loc 1 319 0
 133              		.cfi_startproc
 134              		@ args = 0, pretend = 0, frame = 0
 135              		@ frame_needed = 0, uses_anonymous_args = 0
 136 0000 10B5     		push	{r4, lr}
 137              	.LCFI1:
 138              		.cfi_def_cfa_offset 8
 139              		.cfi_offset 14, -4
 140              		.cfi_offset 4, -8
 141              		.loc 1 341 0
 142 0002 40F20004 		movw	r4, #:lower16:.LANCHOR0
 143 0006 C0F20004 		movt	r4, #:upper16:.LANCHOR0
 144 000a 2046     		mov	r0, r4
 145 000c FFF7FEFF 		bl	pwmObjectInit
 146              		.loc 1 342 0
 147 0010 4FF40063 		mov	r3, #2048
 148 0014 C4F20003 		movt	r3, 16384
 149 0018 2361     		str	r3, [r4, #16]
 150              		.loc 1 356 0
 151 001a 10BD     		pop	{r4, pc}
 152              		.cfi_endproc
 153              	.LFE120:
 154              		.size	pwm_lld_init, .-pwm_lld_init
 155 001c AFF30080 		.section	.text.pwm_lld_start,"ax",%progbits
 156              		.align	2
 157              		.p2align 4,,15
 158              		.global	pwm_lld_start
 159              		.thumb
 160              		.thumb_func
 161              		.type	pwm_lld_start, %function
 162              	pwm_lld_start:
 163              	.LFB121:
 164              		.loc 1 367 0
 165              		.cfi_startproc
 166              		@ args = 0, pretend = 0, frame = 0
 167              		@ frame_needed = 0, uses_anonymous_args = 0
 168              	.LVL2:
 169              		.loc 1 371 0
ARM GAS  /tmp/ccJAudan.s 			page 4


 170 0000 0378     		ldrb	r3, [r0, #0]	@ zero_extendqisi2
 171 0002 012B     		cmp	r3, #1
 172              		.loc 1 367 0
 173 0004 70B5     		push	{r4, r5, r6, lr}
 174              	.LCFI2:
 175              		.cfi_def_cfa_offset 16
 176              		.cfi_offset 14, -4
 177              		.cfi_offset 6, -8
 178              		.cfi_offset 5, -12
 179              		.cfi_offset 4, -16
 180              		.loc 1 367 0
 181 0006 0446     		mov	r4, r0
 182              		.loc 1 371 0
 183 0008 5FD0     		beq	.L33
 184              		.loc 1 446 0
 185 000a 0369     		ldr	r3, [r0, #16]
 186 000c 0022     		movs	r2, #0
 187 000e 1A80     		strh	r2, [r3, #0]	@ movhi
 188              		.loc 1 447 0
 189 0010 9A81     		strh	r2, [r3, #12]	@ movhi
 190              		.loc 1 448 0
 191 0012 1A82     		strh	r2, [r3, #16]	@ movhi
 192              		.loc 1 449 0
 193 0014 5A63     		str	r2, [r3, #52]
 194              		.loc 1 450 0
 195 0016 9A63     		str	r2, [r3, #56]
 196              		.loc 1 451 0
 197 0018 DA63     		str	r2, [r3, #60]
 198              		.loc 1 452 0
 199 001a 1A64     		str	r2, [r3, #64]
 200              		.loc 1 453 0
 201 001c 5A62     		str	r2, [r3, #36]
 202              	.LVL3:
 203              	.L18:
 204              		.loc 1 457 0
 205 001e 6168     		ldr	r1, [r4, #4]
 206              	.LVL4:
 207 0020 E668     		ldr	r6, [r4, #12]
 208 0022 0D68     		ldr	r5, [r1, #0]
 209              		.loc 1 462 0
 210 0024 2489     		ldrh	r4, [r4, #8]
 211              	.LVL5:
 212              		.loc 1 467 0
 213 0026 CA68     		ldr	r2, [r1, #12]
 214              		.loc 1 463 0
 215 0028 888D     		ldrh	r0, [r1, #44]
 216              		.loc 1 457 0
 217 002a B6FBF5F5 		udiv	r5, r6, r5
 218 002e 013D     		subs	r5, r5, #1
 219              		.loc 1 462 0
 220 0030 013C     		subs	r4, r4, #1
 221              		.loc 1 467 0
 222 0032 02F00F02 		and	r2, r2, #15
 223              		.loc 1 461 0
 224 0036 ADB2     		uxth	r5, r5
 225              		.loc 1 462 0
 226 0038 A4B2     		uxth	r4, r4
ARM GAS  /tmp/ccJAudan.s 			page 5


 227              		.loc 1 467 0
 228 003a 012A     		cmp	r2, #1
 229              		.loc 1 461 0
 230 003c 1D85     		strh	r5, [r3, #40]	@ movhi
 231              		.loc 1 462 0
 232 003e DC62     		str	r4, [r3, #44]
 233              		.loc 1 463 0
 234 0040 9880     		strh	r0, [r3, #4]	@ movhi
 235              	.LVL6:
 236              		.loc 1 467 0
 237 0042 03D0     		beq	.L19
 238              		.loc 1 466 0
 239 0044 022A     		cmp	r2, #2
 240 0046 0CBF     		ite	eq
 241 0048 0322     		moveq	r2, #3
 242 004a 0022     		movne	r2, #0
 243              	.L19:
 244              	.LVL7:
 245              		.loc 1 475 0
 246 004c 4869     		ldr	r0, [r1, #20]
 247 004e 00F00F00 		and	r0, r0, #15
 248 0052 0128     		cmp	r0, #1
 249 0054 1ED0     		beq	.L23
 250 0056 0228     		cmp	r0, #2
 251 0058 1AD0     		beq	.L34
 252              		.loc 1 483 0
 253 005a C869     		ldr	r0, [r1, #28]
 254 005c 00F00F00 		and	r0, r0, #15
 255 0060 0128     		cmp	r0, #1
 256 0062 1ED0     		beq	.L26
 257              	.LVL8:
 258              	.L37:
 259 0064 0228     		cmp	r0, #2
 260 0066 2BD0     		beq	.L35
 261              	.LVL9:
 262              		.loc 1 491 0
 263 0068 486A     		ldr	r0, [r1, #36]
 264 006a 00F00F00 		and	r0, r0, #15
 265 006e 0128     		cmp	r0, #1
 266 0070 1ED0     		beq	.L29
 267              	.LVL10:
 268              	.L38:
 269 0072 0228     		cmp	r0, #2
 270 0074 1FD0     		beq	.L36
 271              	.L28:
 272              	.LVL11:
 273              		.loc 1 538 0
 274 0076 8968     		ldr	r1, [r1, #8]
 275              	.LVL12:
 276              		.loc 1 536 0
 277 0078 1A84     		strh	r2, [r3, #32]	@ movhi
 278              		.loc 1 538 0
 279 007a 0A1C     		adds	r2, r1, #0
 280              	.LVL13:
 281 007c 18BF     		it	ne
 282 007e 0122     		movne	r2, #1
 283              		.loc 1 537 0
ARM GAS  /tmp/ccJAudan.s 			page 6


 284 0080 0121     		movs	r1, #1
 285 0082 9982     		strh	r1, [r3, #20]	@ movhi
 286              		.loc 1 538 0
 287 0084 9A81     		strh	r2, [r3, #12]	@ movhi
 288              		.loc 1 539 0
 289 0086 0022     		movs	r2, #0
 290 0088 1A82     		strh	r2, [r3, #16]	@ movhi
 291              		.loc 1 548 0
 292 008a 8522     		movs	r2, #133
 293 008c 1A80     		strh	r2, [r3, #0]	@ movhi
 294              		.loc 1 549 0
 295 008e 70BD     		pop	{r4, r5, r6, pc}
 296              	.LVL14:
 297              	.L34:
 298              		.loc 1 477 0
 299 0090 42F02002 		orr	r2, r2, #32
 300              	.LVL15:
 301              	.L23:
 302              		.loc 1 483 0
 303 0094 C869     		ldr	r0, [r1, #28]
 304 0096 00F00F00 		and	r0, r0, #15
 305 009a 0128     		cmp	r0, #1
 306              		.loc 1 479 0
 307 009c 42F01002 		orr	r2, r2, #16
 308              	.LVL16:
 309              		.loc 1 483 0
 310 00a0 E0D1     		bne	.L37
 311              	.LVL17:
 312              	.L26:
 313              		.loc 1 487 0
 314 00a2 42F48072 		orr	r2, r2, #256
 315              	.LVL18:
 316              	.L39:
 317              		.loc 1 491 0
 318 00a6 486A     		ldr	r0, [r1, #36]
 319 00a8 00F00F00 		and	r0, r0, #15
 320 00ac 0128     		cmp	r0, #1
 321 00ae E0D1     		bne	.L38
 322              	.LVL19:
 323              	.L29:
 324              		.loc 1 495 0
 325 00b0 42F48052 		orr	r2, r2, #4096
 326              	.LVL20:
 327 00b4 DFE7     		b	.L28
 328              	.LVL21:
 329              	.L36:
 330              		.loc 1 493 0
 331 00b6 42F40052 		orr	r2, r2, #8192
 332              	.LVL22:
 333              		.loc 1 495 0
 334 00ba 42F48052 		orr	r2, r2, #4096
 335              	.LVL23:
 336 00be DAE7     		b	.L28
 337              	.LVL24:
 338              	.L35:
 339              		.loc 1 485 0
 340 00c0 42F40072 		orr	r2, r2, #512
ARM GAS  /tmp/ccJAudan.s 			page 7


 341              	.LVL25:
 342              		.loc 1 487 0
 343 00c4 42F48072 		orr	r2, r2, #256
 344              	.LVL26:
 345 00c8 EDE7     		b	.L39
 346              	.LVL27:
 347              	.L33:
 348              		.loc 1 403 0
 349 00ca 104B     		ldr	r3, .L41
 350 00cc 9842     		cmp	r0, r3
 351 00ce 05D0     		beq	.L40
 352              	.LVL28:
 353              	.L17:
 354              		.loc 1 435 0
 355 00d0 2369     		ldr	r3, [r4, #16]
 356 00d2 46F66802 		movw	r2, #26728
 357 00d6 1A83     		strh	r2, [r3, #24]	@ movhi
 358              		.loc 1 439 0
 359 00d8 9A83     		strh	r2, [r3, #28]	@ movhi
 360 00da A0E7     		b	.L18
 361              	.L40:
 362              		.loc 1 404 0
 363 00dc 4FF46053 		mov	r3, #14336
 364 00e0 C4F20203 		movt	r3, 16386
 365              		.loc 1 406 0
 366 00e4 1E20     		movs	r0, #30
 367              		.loc 1 404 0
 368 00e6 1A6C     		ldr	r2, [r3, #64]
 369 00e8 42F00402 		orr	r2, r2, #4
 370 00ec 1A64     		str	r2, [r3, #64]
 371              		.loc 1 405 0
 372 00ee 1A6A     		ldr	r2, [r3, #32]
 373 00f0 42F00402 		orr	r2, r2, #4
 374 00f4 1A62     		str	r2, [r3, #32]
 375 00f6 0022     		movs	r2, #0
 376 00f8 1A62     		str	r2, [r3, #32]
 377              		.loc 1 406 0
 378 00fa 7021     		movs	r1, #112
 379 00fc FFF7FEFF 		bl	nvicEnableVector
 380              		.loc 1 408 0
 381 0100 4FF43D43 		mov	r3, #48384
 382 0104 C0F20153 		movt	r3, 1281
 383 0108 E360     		str	r3, [r4, #12]
 384 010a E1E7     		b	.L17
 385              	.L42:
 386              		.align	2
 387              	.L41:
 388 010c 00000000 		.word	.LANCHOR0
 389              		.cfi_endproc
 390              	.LFE121:
 391              		.size	pwm_lld_start, .-pwm_lld_start
 392              		.section	.text.pwm_lld_stop,"ax",%progbits
 393              		.align	2
 394              		.p2align 4,,15
 395              		.global	pwm_lld_stop
 396              		.thumb
 397              		.thumb_func
ARM GAS  /tmp/ccJAudan.s 			page 8


 398              		.type	pwm_lld_stop, %function
 399              	pwm_lld_stop:
 400              	.LFB122:
 401              		.loc 1 558 0
 402              		.cfi_startproc
 403              		@ args = 0, pretend = 0, frame = 0
 404              		@ frame_needed = 0, uses_anonymous_args = 0
 405              	.LVL29:
 406 0000 08B5     		push	{r3, lr}
 407              	.LCFI3:
 408              		.cfi_def_cfa_offset 8
 409              		.cfi_offset 14, -4
 410              		.cfi_offset 3, -8
 411              		.loc 1 561 0
 412 0002 0378     		ldrb	r3, [r0, #0]	@ zero_extendqisi2
 413 0004 022B     		cmp	r3, #2
 414 0006 00D0     		beq	.L45
 415              	.LVL30:
 416              	.L43:
 417 0008 08BD     		pop	{r3, pc}
 418              	.LVL31:
 419              	.L45:
 420              		.loc 1 562 0
 421 000a 0369     		ldr	r3, [r0, #16]
 422 000c 0022     		movs	r2, #0
 423 000e 1A80     		strh	r2, [r3, #0]	@ movhi
 424              		.loc 1 563 0
 425 0010 9A81     		strh	r2, [r3, #12]	@ movhi
 426              		.loc 1 564 0
 427 0012 1A82     		strh	r2, [r3, #16]	@ movhi
 428              		.loc 1 589 0
 429 0014 074B     		ldr	r3, .L46
 430 0016 9842     		cmp	r0, r3
 431 0018 F6D1     		bne	.L43
 432              		.loc 1 590 0
 433 001a 1E20     		movs	r0, #30
 434              	.LVL32:
 435 001c FFF7FEFF 		bl	nvicDisableVector
 436              		.loc 1 591 0
 437 0020 4FF46053 		mov	r3, #14336
 438 0024 C4F20203 		movt	r3, 16386
 439 0028 1A6C     		ldr	r2, [r3, #64]
 440 002a 22F00402 		bic	r2, r2, #4
 441 002e 1A64     		str	r2, [r3, #64]
 442 0030 EAE7     		b	.L43
 443              	.L47:
 444 0032 00BF     		.align	2
 445              	.L46:
 446 0034 00000000 		.word	.LANCHOR0
 447              		.cfi_endproc
 448              	.LFE122:
 449              		.size	pwm_lld_stop, .-pwm_lld_stop
 450 0038 AFF30080 		.section	.text.pwm_lld_enable_channel,"ax",%progbits
 450      AFF30080 
 451              		.align	2
 452              		.p2align 4,,15
 453              		.global	pwm_lld_enable_channel
ARM GAS  /tmp/ccJAudan.s 			page 9


 454              		.thumb
 455              		.thumb_func
 456              		.type	pwm_lld_enable_channel, %function
 457              	pwm_lld_enable_channel:
 458              	.LFB123:
 459              		.loc 1 624 0
 460              		.cfi_startproc
 461              		@ args = 0, pretend = 0, frame = 0
 462              		@ frame_needed = 0, uses_anonymous_args = 0
 463              		@ link register save eliminated.
 464              	.LVL33:
 465 0000 10B4     		push	{r4}
 466              	.LCFI4:
 467              		.cfi_def_cfa_offset 4
 468              		.cfi_offset 4, -4
 469              		.loc 1 629 0
 470 0002 4468     		ldr	r4, [r0, #4]
 471              		.loc 1 626 0
 472 0004 0369     		ldr	r3, [r0, #16]
 473              		.loc 1 629 0
 474 0006 04EBC100 		add	r0, r4, r1, lsl #3
 475              	.LVL34:
 476              		.loc 1 626 0
 477 000a 01F10C04 		add	r4, r1, #12
 478 000e 03EB8404 		add	r4, r3, r4, lsl #2
 479              		.loc 1 629 0
 480 0012 0069     		ldr	r0, [r0, #16]
 481              		.loc 1 626 0
 482 0014 6260     		str	r2, [r4, #4]
 483              		.loc 1 629 0
 484 0016 60B1     		cbz	r0, .L48
 485              	.LBB8:
 486              		.loc 1 630 0
 487 0018 9A89     		ldrh	r2, [r3, #12]
 488              	.LVL35:
 489              		.loc 1 633 0
 490 001a 0220     		movs	r0, #2
 491              		.loc 1 630 0
 492 001c 92B2     		uxth	r2, r2
 493              	.LVL36:
 494              		.loc 1 633 0
 495 001e 10FA01F1 		lsls	r1, r0, r1
 496              	.LVL37:
 497 0022 1142     		tst	r1, r2
 498 0024 05D1     		bne	.L48
 499              		.loc 1 634 0
 500 0026 89B2     		uxth	r1, r1
 501              		.loc 1 635 0
 502 0028 C843     		mvns	r0, r1
 503 002a 80B2     		uxth	r0, r0
 504              		.loc 1 634 0
 505 002c 1143     		orrs	r1, r1, r2
 506 002e 9981     		strh	r1, [r3, #12]	@ movhi
 507              		.loc 1 635 0
 508 0030 1882     		strh	r0, [r3, #16]	@ movhi
 509              	.LVL38:
 510              	.L48:
ARM GAS  /tmp/ccJAudan.s 			page 10


 511              	.LBE8:
 512              		.loc 1 638 0
 513 0032 10BC     		pop	{r4}
 514 0034 7047     		bx	lr
 515              		.cfi_endproc
 516              	.LFE123:
 517              		.size	pwm_lld_enable_channel, .-pwm_lld_enable_channel
 518 0036 00BFAFF3 		.section	.text.pwm_lld_disable_channel,"ax",%progbits
 518      0080AFF3 
 518      0080
 519              		.align	2
 520              		.p2align 4,,15
 521              		.global	pwm_lld_disable_channel
 522              		.thumb
 523              		.thumb_func
 524              		.type	pwm_lld_disable_channel, %function
 525              	pwm_lld_disable_channel:
 526              	.LFB124:
 527              		.loc 1 652 0
 528              		.cfi_startproc
 529              		@ args = 0, pretend = 0, frame = 0
 530              		@ frame_needed = 0, uses_anonymous_args = 0
 531              		@ link register save eliminated.
 532              	.LVL39:
 533              		.loc 1 654 0
 534 0000 0369     		ldr	r3, [r0, #16]
 535 0002 01F10C02 		add	r2, r1, #12
 536 0006 03EB8202 		add	r2, r3, r2, lsl #2
 537 000a 0020     		movs	r0, #0
 538              	.LVL40:
 539 000c 5060     		str	r0, [r2, #4]
 540              		.loc 1 655 0
 541 000e 9A89     		ldrh	r2, [r3, #12]
 542 0010 0220     		movs	r0, #2
 543 0012 92B2     		uxth	r2, r2
 544 0014 10FA01F1 		lsls	r1, r0, r1
 545              	.LVL41:
 546 0018 22EA0101 		bic	r1, r2, r1
 547 001c 9981     		strh	r1, [r3, #12]	@ movhi
 548              		.loc 1 656 0
 549 001e 7047     		bx	lr
 550              		.cfi_endproc
 551              	.LFE124:
 552              		.size	pwm_lld_disable_channel, .-pwm_lld_disable_channel
 553              		.global	PWMD4
 554              		.section	.bss.PWMD4,"aw",%nobits
 555              		.align	2
 556              		.set	.LANCHOR0,. + 0
 557              		.type	PWMD4, %object
 558              		.size	PWMD4, 20
 559              	PWMD4:
 560 0000 00000000 		.space	20
 560      00000000 
 560      00000000 
 560      00000000 
 560      00000000 
 561              		.text
ARM GAS  /tmp/ccJAudan.s 			page 11


 562              	.Letext0:
 563              		.file 2 "/home/craig/gcc/arm/lib/gcc/arm-none-eabi/4.6.2/../../../../arm-none-eabi/include/stdint.
 564              		.file 3 "../../os/hal/platforms/STM32F4xx/stm32f4xx.h"
 565              		.file 4 "../../os/hal/platforms/STM32/stm32.h"
 566              		.file 5 "../../os/hal/include/pwm.h"
 567              		.file 6 "../../os/hal/platforms/STM32/pwm_lld.h"
 568              		.file 7 "../../os/ports/common/ARMCMx/CMSIS/include/core_cm4.h"