ARM GAS  /tmp/ccOe3ak4.s 			page 1


   1              		.syntax unified
   2              		.cpu cortex-m4
   3              		.fpu softvfp
   4              		.eabi_attribute 20, 1
   5              		.eabi_attribute 21, 1
   6              		.eabi_attribute 23, 3
   7              		.eabi_attribute 24, 1
   8              		.eabi_attribute 25, 1
   9              		.eabi_attribute 26, 1
  10              		.eabi_attribute 30, 2
  11              		.eabi_attribute 18, 4
  12              		.thumb
  13              		.file	"spi.c"
  14              		.text
  15              	.Ltext0:
  16              		.cfi_sections	.debug_frame
  17              		.section	.text.spiInit,"ax",%progbits
  18              		.align	2
  19              		.p2align 4,,15
  20              		.global	spiInit
  21              		.thumb
  22              		.thumb_func
  23              		.type	spiInit, %function
  24              	spiInit:
  25              	.LFB118:
  26              		.file 1 "../../os/hal/src/spi.c"
  27              		.loc 1 61 0
  28              		.cfi_startproc
  29              		@ args = 0, pretend = 0, frame = 0
  30              		@ frame_needed = 0, uses_anonymous_args = 0
  31              		@ link register save eliminated.
  32              		.loc 1 64 0
  33              		.loc 1 63 0
  34 0000 FFF7FEBF 		b	spi_lld_init
  35              		.cfi_endproc
  36              	.LFE118:
  37              		.size	spiInit, .-spiInit
  38 0004 AFF30080 		.section	.text.spiObjectInit,"ax",%progbits
  38      AFF30080 
  38      AFF30080 
  39              		.align	2
  40              		.p2align 4,,15
  41              		.global	spiObjectInit
  42              		.thumb
  43              		.thumb_func
  44              		.type	spiObjectInit, %function
  45              	spiObjectInit:
  46              	.LFB119:
  47              		.loc 1 73 0
  48              		.cfi_startproc
  49              		@ args = 0, pretend = 0, frame = 0
  50              		@ frame_needed = 0, uses_anonymous_args = 0
  51              		@ link register save eliminated.
  52              	.LVL0:
  53              		.loc 1 76 0
  54 0000 0023     		movs	r3, #0
  55              		.loc 1 75 0
ARM GAS  /tmp/ccOe3ak4.s 			page 2


  56 0002 0122     		movs	r2, #1
  57 0004 0270     		strb	r2, [r0, #0]
  58              		.loc 1 76 0
  59 0006 4360     		str	r3, [r0, #4]
  60              		.loc 1 78 0
  61 0008 8360     		str	r3, [r0, #8]
  62              		.loc 1 82 0
  63 000a 0C30     		adds	r0, r0, #12
  64              	.LVL1:
  65              		.loc 1 90 0
  66              		.loc 1 82 0
  67 000c FFF7FEBF 		b	chMtxInit
  68              	.LVL2:
  69              		.cfi_endproc
  70              	.LFE119:
  71              		.size	spiObjectInit, .-spiObjectInit
  72              		.section	.text.spiStart,"ax",%progbits
  73              		.align	2
  74              		.p2align 4,,15
  75              		.global	spiStart
  76              		.thumb
  77              		.thumb_func
  78              		.type	spiStart, %function
  79              	spiStart:
  80              	.LFB120:
  81              		.loc 1 100 0
  82              		.cfi_startproc
  83              		@ args = 0, pretend = 0, frame = 0
  84              		@ frame_needed = 0, uses_anonymous_args = 0
  85              	.LVL3:
  86 0000 10B5     		push	{r4, lr}
  87              	.LCFI0:
  88              		.cfi_def_cfa_offset 8
  89              		.cfi_offset 14, -4
  90              		.cfi_offset 4, -8
  91              	.LBB2:
  92              		.loc 1 104 0
  93 0002 2023     		movs	r3, #32
  94              	.LVL4:
  95              	.LBE2:
  96              		.loc 1 100 0
  97 0004 0446     		mov	r4, r0
  98              	.LBB3:
  99              		.loc 1 104 0
 100              	@ 104 "../../os/hal/src/spi.c" 1
 101 0006 83F31188 		msr     BASEPRI, r3
 102              	@ 0 "" 2
 103              	.LVL5:
 104              		.thumb
 105              	.LBE3:
 106              		.loc 1 107 0
 107 000a 4160     		str	r1, [r0, #4]
 108              		.loc 1 108 0
 109 000c FFF7FEFF 		bl	spi_lld_start
 110              	.LVL6:
 111              		.loc 1 109 0
 112 0010 0223     		movs	r3, #2
ARM GAS  /tmp/ccOe3ak4.s 			page 3


 113 0012 2370     		strb	r3, [r4, #0]
 114              	.LBB4:
 115              		.loc 1 110 0
 116 0014 0023     		movs	r3, #0
 117              	.LVL7:
 118              	@ 110 "../../os/hal/src/spi.c" 1
 119 0016 83F31188 		msr     BASEPRI, r3
 120              	@ 0 "" 2
 121              	.LVL8:
 122              		.thumb
 123              	.LBE4:
 124              		.loc 1 111 0
 125 001a 10BD     		pop	{r4, pc}
 126              		.cfi_endproc
 127              	.LFE120:
 128              		.size	spiStart, .-spiStart
 129 001c AFF30080 		.section	.text.spiStop,"ax",%progbits
 130              		.align	2
 131              		.p2align 4,,15
 132              		.global	spiStop
 133              		.thumb
 134              		.thumb_func
 135              		.type	spiStop, %function
 136              	spiStop:
 137              	.LFB121:
 138              		.loc 1 122 0
 139              		.cfi_startproc
 140              		@ args = 0, pretend = 0, frame = 0
 141              		@ frame_needed = 0, uses_anonymous_args = 0
 142              	.LVL9:
 143 0000 10B5     		push	{r4, lr}
 144              	.LCFI1:
 145              		.cfi_def_cfa_offset 8
 146              		.cfi_offset 14, -4
 147              		.cfi_offset 4, -8
 148              	.LBB5:
 149              		.loc 1 126 0
 150 0002 2023     		movs	r3, #32
 151              	.LVL10:
 152              	.LBE5:
 153              		.loc 1 122 0
 154 0004 0446     		mov	r4, r0
 155              	.LBB6:
 156              		.loc 1 126 0
 157              	@ 126 "../../os/hal/src/spi.c" 1
 158 0006 83F31188 		msr     BASEPRI, r3
 159              	@ 0 "" 2
 160              	.LVL11:
 161              		.thumb
 162              	.LBE6:
 163              		.loc 1 129 0
 164 000a FFF7FEFF 		bl	spi_lld_unselect
 165              	.LVL12:
 166              		.loc 1 130 0
 167 000e 2046     		mov	r0, r4
 168 0010 FFF7FEFF 		bl	spi_lld_stop
 169              		.loc 1 131 0
ARM GAS  /tmp/ccOe3ak4.s 			page 4


 170 0014 0123     		movs	r3, #1
 171 0016 2370     		strb	r3, [r4, #0]
 172              	.LBB7:
 173              		.loc 1 132 0
 174 0018 0023     		movs	r3, #0
 175              	.LVL13:
 176              	@ 132 "../../os/hal/src/spi.c" 1
 177 001a 83F31188 		msr     BASEPRI, r3
 178              	@ 0 "" 2
 179              	.LVL14:
 180              		.thumb
 181              	.LBE7:
 182              		.loc 1 133 0
 183 001e 10BD     		pop	{r4, pc}
 184              		.cfi_endproc
 185              	.LFE121:
 186              		.size	spiStop, .-spiStop
 187              		.section	.text.spiSelect,"ax",%progbits
 188              		.align	2
 189              		.p2align 4,,15
 190              		.global	spiSelect
 191              		.thumb
 192              		.thumb_func
 193              		.type	spiSelect, %function
 194              	spiSelect:
 195              	.LFB122:
 196              		.loc 1 142 0
 197              		.cfi_startproc
 198              		@ args = 0, pretend = 0, frame = 0
 199              		@ frame_needed = 0, uses_anonymous_args = 0
 200              	.LVL15:
 201 0000 08B5     		push	{r3, lr}
 202              	.LCFI2:
 203              		.cfi_def_cfa_offset 8
 204              		.cfi_offset 14, -4
 205              		.cfi_offset 3, -8
 206              	.LBB8:
 207              		.loc 1 146 0
 208 0002 2023     		movs	r3, #32
 209              	.LVL16:
 210              	@ 146 "../../os/hal/src/spi.c" 1
 211 0004 83F31188 		msr     BASEPRI, r3
 212              	@ 0 "" 2
 213              	.LVL17:
 214              		.thumb
 215              	.LBE8:
 216              		.loc 1 148 0
 217 0008 FFF7FEFF 		bl	spi_lld_select
 218              	.LVL18:
 219              	.LBB9:
 220              		.loc 1 149 0
 221 000c 0023     		movs	r3, #0
 222              	.LVL19:
 223              	@ 149 "../../os/hal/src/spi.c" 1
 224 000e 83F31188 		msr     BASEPRI, r3
 225              	@ 0 "" 2
 226              	.LVL20:
ARM GAS  /tmp/ccOe3ak4.s 			page 5


 227              		.thumb
 228              	.LBE9:
 229              		.loc 1 150 0
 230 0012 08BD     		pop	{r3, pc}
 231              		.cfi_endproc
 232              	.LFE122:
 233              		.size	spiSelect, .-spiSelect
 234 0014 AFF30080 		.section	.text.spiUnselect,"ax",%progbits
 234      AFF30080 
 234      AFF30080 
 235              		.align	2
 236              		.p2align 4,,15
 237              		.global	spiUnselect
 238              		.thumb
 239              		.thumb_func
 240              		.type	spiUnselect, %function
 241              	spiUnselect:
 242              	.LFB123:
 243              		.loc 1 160 0
 244              		.cfi_startproc
 245              		@ args = 0, pretend = 0, frame = 0
 246              		@ frame_needed = 0, uses_anonymous_args = 0
 247              	.LVL21:
 248 0000 08B5     		push	{r3, lr}
 249              	.LCFI3:
 250              		.cfi_def_cfa_offset 8
 251              		.cfi_offset 14, -4
 252              		.cfi_offset 3, -8
 253              	.LBB10:
 254              		.loc 1 164 0
 255 0002 2023     		movs	r3, #32
 256              	.LVL22:
 257              	@ 164 "../../os/hal/src/spi.c" 1
 258 0004 83F31188 		msr     BASEPRI, r3
 259              	@ 0 "" 2
 260              	.LVL23:
 261              		.thumb
 262              	.LBE10:
 263              		.loc 1 166 0
 264 0008 FFF7FEFF 		bl	spi_lld_unselect
 265              	.LVL24:
 266              	.LBB11:
 267              		.loc 1 167 0
 268 000c 0023     		movs	r3, #0
 269              	.LVL25:
 270              	@ 167 "../../os/hal/src/spi.c" 1
 271 000e 83F31188 		msr     BASEPRI, r3
 272              	@ 0 "" 2
 273              	.LVL26:
 274              		.thumb
 275              	.LBE11:
 276              		.loc 1 168 0
 277 0012 08BD     		pop	{r3, pc}
 278              		.cfi_endproc
 279              	.LFE123:
 280              		.size	spiUnselect, .-spiUnselect
 281 0014 AFF30080 		.section	.text.spiStartIgnore,"ax",%progbits
ARM GAS  /tmp/ccOe3ak4.s 			page 6


 281      AFF30080 
 281      AFF30080 
 282              		.align	2
 283              		.p2align 4,,15
 284              		.global	spiStartIgnore
 285              		.thumb
 286              		.thumb_func
 287              		.type	spiStartIgnore, %function
 288              	spiStartIgnore:
 289              	.LFB124:
 290              		.loc 1 183 0
 291              		.cfi_startproc
 292              		@ args = 0, pretend = 0, frame = 0
 293              		@ frame_needed = 0, uses_anonymous_args = 0
 294              	.LVL27:
 295 0000 08B5     		push	{r3, lr}
 296              	.LCFI4:
 297              		.cfi_def_cfa_offset 8
 298              		.cfi_offset 14, -4
 299              		.cfi_offset 3, -8
 300              	.LBB12:
 301              		.loc 1 187 0
 302 0002 2023     		movs	r3, #32
 303              	.LVL28:
 304              	@ 187 "../../os/hal/src/spi.c" 1
 305 0004 83F31188 		msr     BASEPRI, r3
 306              	@ 0 "" 2
 307              	.LVL29:
 308              		.thumb
 309              	.LBE12:
 310              		.loc 1 189 0
 311 0008 0323     		movs	r3, #3
 312              	.LVL30:
 313 000a 0370     		strb	r3, [r0, #0]
 314 000c FFF7FEFF 		bl	spi_lld_ignore
 315              	.LVL31:
 316              	.LBB13:
 317              		.loc 1 190 0
 318 0010 0023     		movs	r3, #0
 319              	.LVL32:
 320              	@ 190 "../../os/hal/src/spi.c" 1
 321 0012 83F31188 		msr     BASEPRI, r3
 322              	@ 0 "" 2
 323              	.LVL33:
 324              		.thumb
 325              	.LBE13:
 326              		.loc 1 191 0
 327 0016 08BD     		pop	{r3, pc}
 328              		.cfi_endproc
 329              	.LFE124:
 330              		.size	spiStartIgnore, .-spiStartIgnore
 331 0018 AFF30080 		.section	.text.spiStartExchange,"ax",%progbits
 331      AFF30080 
 332              		.align	2
 333              		.p2align 4,,15
 334              		.global	spiStartExchange
 335              		.thumb
ARM GAS  /tmp/ccOe3ak4.s 			page 7


 336              		.thumb_func
 337              		.type	spiStartExchange, %function
 338              	spiStartExchange:
 339              	.LFB125:
 340              		.loc 1 211 0
 341              		.cfi_startproc
 342              		@ args = 0, pretend = 0, frame = 0
 343              		@ frame_needed = 0, uses_anonymous_args = 0
 344              	.LVL34:
 345 0000 38B5     		push	{r3, r4, r5, lr}
 346              	.LCFI5:
 347              		.cfi_def_cfa_offset 16
 348              		.cfi_offset 14, -4
 349              		.cfi_offset 5, -8
 350              		.cfi_offset 4, -12
 351              		.cfi_offset 3, -16
 352              		.loc 1 211 0
 353 0002 1D46     		mov	r5, r3
 354 0004 0446     		mov	r4, r0
 355              	.LBB14:
 356              		.loc 1 216 0
 357 0006 2023     		movs	r3, #32
 358              	.LVL35:
 359              	@ 216 "../../os/hal/src/spi.c" 1
 360 0008 83F31188 		msr     BASEPRI, r3
 361              	@ 0 "" 2
 362              	.LVL36:
 363              		.thumb
 364              	.LBE14:
 365              		.loc 1 218 0
 366 000c 2B46     		mov	r3, r5
 367              	.LVL37:
 368 000e 0325     		movs	r5, #3
 369              	.LVL38:
 370 0010 0570     		strb	r5, [r0, #0]
 371 0012 FFF7FEFF 		bl	spi_lld_exchange
 372              	.LVL39:
 373              	.LBB15:
 374              		.loc 1 219 0
 375 0016 0023     		movs	r3, #0
 376              	.LVL40:
 377              	@ 219 "../../os/hal/src/spi.c" 1
 378 0018 83F31188 		msr     BASEPRI, r3
 379              	@ 0 "" 2
 380              	.LVL41:
 381              		.thumb
 382              	.LBE15:
 383              		.loc 1 220 0
 384 001c 38BD     		pop	{r3, r4, r5, pc}
 385              		.cfi_endproc
 386              	.LFE125:
 387              		.size	spiStartExchange, .-spiStartExchange
 388 001e 00BF     		.section	.text.spiStartSend,"ax",%progbits
 389              		.align	2
 390              		.p2align 4,,15
 391              		.global	spiStartSend
 392              		.thumb
ARM GAS  /tmp/ccOe3ak4.s 			page 8


 393              		.thumb_func
 394              		.type	spiStartSend, %function
 395              	spiStartSend:
 396              	.LFB126:
 397              		.loc 1 237 0
 398              		.cfi_startproc
 399              		@ args = 0, pretend = 0, frame = 0
 400              		@ frame_needed = 0, uses_anonymous_args = 0
 401              	.LVL42:
 402 0000 10B5     		push	{r4, lr}
 403              	.LCFI6:
 404              		.cfi_def_cfa_offset 8
 405              		.cfi_offset 14, -4
 406              		.cfi_offset 4, -8
 407              	.LBB16:
 408              		.loc 1 242 0
 409 0002 2023     		movs	r3, #32
 410              	.LVL43:
 411              	.LBE16:
 412              		.loc 1 237 0
 413 0004 0446     		mov	r4, r0
 414              	.LBB17:
 415              		.loc 1 242 0
 416              	@ 242 "../../os/hal/src/spi.c" 1
 417 0006 83F31188 		msr     BASEPRI, r3
 418              	@ 0 "" 2
 419              	.LVL44:
 420              		.thumb
 421              	.LBE17:
 422              		.loc 1 244 0
 423 000a 0323     		movs	r3, #3
 424              	.LVL45:
 425 000c 0370     		strb	r3, [r0, #0]
 426 000e FFF7FEFF 		bl	spi_lld_send
 427              	.LVL46:
 428              	.LBB18:
 429              		.loc 1 245 0
 430 0012 0023     		movs	r3, #0
 431              	.LVL47:
 432              	@ 245 "../../os/hal/src/spi.c" 1
 433 0014 83F31188 		msr     BASEPRI, r3
 434              	@ 0 "" 2
 435              	.LVL48:
 436              		.thumb
 437              	.LBE18:
 438              		.loc 1 246 0
 439 0018 10BD     		pop	{r4, pc}
 440              		.cfi_endproc
 441              	.LFE126:
 442              		.size	spiStartSend, .-spiStartSend
 443 001a 00BFAFF3 		.section	.text.spiStartReceive,"ax",%progbits
 443      0080
 444              		.align	2
 445              		.p2align 4,,15
 446              		.global	spiStartReceive
 447              		.thumb
 448              		.thumb_func
ARM GAS  /tmp/ccOe3ak4.s 			page 9


 449              		.type	spiStartReceive, %function
 450              	spiStartReceive:
 451              	.LFB127:
 452              		.loc 1 263 0
 453              		.cfi_startproc
 454              		@ args = 0, pretend = 0, frame = 0
 455              		@ frame_needed = 0, uses_anonymous_args = 0
 456              	.LVL49:
 457 0000 10B5     		push	{r4, lr}
 458              	.LCFI7:
 459              		.cfi_def_cfa_offset 8
 460              		.cfi_offset 14, -4
 461              		.cfi_offset 4, -8
 462              	.LBB19:
 463              		.loc 1 268 0
 464 0002 2023     		movs	r3, #32
 465              	.LVL50:
 466              	.LBE19:
 467              		.loc 1 263 0
 468 0004 0446     		mov	r4, r0
 469              	.LBB20:
 470              		.loc 1 268 0
 471              	@ 268 "../../os/hal/src/spi.c" 1
 472 0006 83F31188 		msr     BASEPRI, r3
 473              	@ 0 "" 2
 474              	.LVL51:
 475              		.thumb
 476              	.LBE20:
 477              		.loc 1 270 0
 478 000a 0323     		movs	r3, #3
 479              	.LVL52:
 480 000c 0370     		strb	r3, [r0, #0]
 481 000e FFF7FEFF 		bl	spi_lld_receive
 482              	.LVL53:
 483              	.LBB21:
 484              		.loc 1 271 0
 485 0012 0023     		movs	r3, #0
 486              	.LVL54:
 487              	@ 271 "../../os/hal/src/spi.c" 1
 488 0014 83F31188 		msr     BASEPRI, r3
 489              	@ 0 "" 2
 490              	.LVL55:
 491              		.thumb
 492              	.LBE21:
 493              		.loc 1 272 0
 494 0018 10BD     		pop	{r4, pc}
 495              		.cfi_endproc
 496              	.LFE127:
 497              		.size	spiStartReceive, .-spiStartReceive
 498 001a 00BFAFF3 		.section	.text.spiIgnore,"ax",%progbits
 498      0080
 499              		.align	2
 500              		.p2align 4,,15
 501              		.global	spiIgnore
 502              		.thumb
 503              		.thumb_func
 504              		.type	spiIgnore, %function
ARM GAS  /tmp/ccOe3ak4.s 			page 10


 505              	spiIgnore:
 506              	.LFB128:
 507              		.loc 1 289 0
 508              		.cfi_startproc
 509              		@ args = 0, pretend = 0, frame = 0
 510              		@ frame_needed = 0, uses_anonymous_args = 0
 511              	.LVL56:
 512 0000 10B5     		push	{r4, lr}
 513              	.LCFI8:
 514              		.cfi_def_cfa_offset 8
 515              		.cfi_offset 14, -4
 516              		.cfi_offset 4, -8
 517              	.LBB22:
 518              		.loc 1 293 0
 519 0002 2023     		movs	r3, #32
 520              	.LVL57:
 521              	.LBE22:
 522              		.loc 1 289 0
 523 0004 0446     		mov	r4, r0
 524              	.LBB23:
 525              		.loc 1 293 0
 526              	@ 293 "../../os/hal/src/spi.c" 1
 527 0006 83F31188 		msr     BASEPRI, r3
 528              	@ 0 "" 2
 529              	.LVL58:
 530              		.thumb
 531              	.LBE23:
 532              		.loc 1 296 0
 533 000a 0323     		movs	r3, #3
 534              	.LVL59:
 535 000c 0370     		strb	r3, [r0, #0]
 536 000e FFF7FEFF 		bl	spi_lld_ignore
 537              	.LVL60:
 538              		.loc 1 297 0
 539 0012 40F20003 		movw	r3, #:lower16:rlist
 540 0016 C0F20003 		movt	r3, #:upper16:rlist
 541 001a 0220     		movs	r0, #2
 542 001c 9B69     		ldr	r3, [r3, #24]
 543 001e A360     		str	r3, [r4, #8]
 544 0020 FFF7FEFF 		bl	chSchGoSleepS
 545              	.LBB24:
 546              		.loc 1 298 0
 547 0024 0023     		movs	r3, #0
 548              	.LVL61:
 549              	@ 298 "../../os/hal/src/spi.c" 1
 550 0026 83F31188 		msr     BASEPRI, r3
 551              	@ 0 "" 2
 552              	.LVL62:
 553              		.thumb
 554              	.LBE24:
 555              		.loc 1 299 0
 556 002a 10BD     		pop	{r4, pc}
 557              		.cfi_endproc
 558              	.LFE128:
 559              		.size	spiIgnore, .-spiIgnore
 560 002c AFF30080 		.section	.text.spiExchange,"ax",%progbits
 561              		.align	2
ARM GAS  /tmp/ccOe3ak4.s 			page 11


 562              		.p2align 4,,15
 563              		.global	spiExchange
 564              		.thumb
 565              		.thumb_func
 566              		.type	spiExchange, %function
 567              	spiExchange:
 568              	.LFB129:
 569              		.loc 1 320 0
 570              		.cfi_startproc
 571              		@ args = 0, pretend = 0, frame = 0
 572              		@ frame_needed = 0, uses_anonymous_args = 0
 573              	.LVL63:
 574 0000 38B5     		push	{r3, r4, r5, lr}
 575              	.LCFI9:
 576              		.cfi_def_cfa_offset 16
 577              		.cfi_offset 14, -4
 578              		.cfi_offset 5, -8
 579              		.cfi_offset 4, -12
 580              		.cfi_offset 3, -16
 581              		.loc 1 320 0
 582 0002 1D46     		mov	r5, r3
 583 0004 0446     		mov	r4, r0
 584              	.LBB25:
 585              		.loc 1 325 0
 586 0006 2023     		movs	r3, #32
 587              	.LVL64:
 588              	@ 325 "../../os/hal/src/spi.c" 1
 589 0008 83F31188 		msr     BASEPRI, r3
 590              	@ 0 "" 2
 591              	.LVL65:
 592              		.thumb
 593              	.LBE25:
 594              		.loc 1 329 0
 595 000c 2B46     		mov	r3, r5
 596              	.LVL66:
 597 000e 0325     		movs	r5, #3
 598              	.LVL67:
 599 0010 0570     		strb	r5, [r0, #0]
 600 0012 FFF7FEFF 		bl	spi_lld_exchange
 601              	.LVL68:
 602              		.loc 1 330 0
 603 0016 40F20003 		movw	r3, #:lower16:rlist
 604 001a C0F20003 		movt	r3, #:upper16:rlist
 605 001e 0220     		movs	r0, #2
 606 0020 9B69     		ldr	r3, [r3, #24]
 607 0022 A360     		str	r3, [r4, #8]
 608 0024 FFF7FEFF 		bl	chSchGoSleepS
 609              	.LBB26:
 610              		.loc 1 331 0
 611 0028 0023     		movs	r3, #0
 612              	.LVL69:
 613              	@ 331 "../../os/hal/src/spi.c" 1
 614 002a 83F31188 		msr     BASEPRI, r3
 615              	@ 0 "" 2
 616              	.LVL70:
 617              		.thumb
 618              	.LBE26:
ARM GAS  /tmp/ccOe3ak4.s 			page 12


 619              		.loc 1 332 0
 620 002e 38BD     		pop	{r3, r4, r5, pc}
 621              		.cfi_endproc
 622              	.LFE129:
 623              		.size	spiExchange, .-spiExchange
 624              		.section	.text.spiSend,"ax",%progbits
 625              		.align	2
 626              		.p2align 4,,15
 627              		.global	spiSend
 628              		.thumb
 629              		.thumb_func
 630              		.type	spiSend, %function
 631              	spiSend:
 632              	.LFB130:
 633              		.loc 1 350 0
 634              		.cfi_startproc
 635              		@ args = 0, pretend = 0, frame = 0
 636              		@ frame_needed = 0, uses_anonymous_args = 0
 637              	.LVL71:
 638 0000 10B5     		push	{r4, lr}
 639              	.LCFI10:
 640              		.cfi_def_cfa_offset 8
 641              		.cfi_offset 14, -4
 642              		.cfi_offset 4, -8
 643              	.LBB27:
 644              		.loc 1 354 0
 645 0002 2023     		movs	r3, #32
 646              	.LVL72:
 647              	.LBE27:
 648              		.loc 1 350 0
 649 0004 0446     		mov	r4, r0
 650              	.LBB28:
 651              		.loc 1 354 0
 652              	@ 354 "../../os/hal/src/spi.c" 1
 653 0006 83F31188 		msr     BASEPRI, r3
 654              	@ 0 "" 2
 655              	.LVL73:
 656              		.thumb
 657              	.LBE28:
 658              		.loc 1 357 0
 659 000a 0323     		movs	r3, #3
 660              	.LVL74:
 661 000c 0370     		strb	r3, [r0, #0]
 662 000e FFF7FEFF 		bl	spi_lld_send
 663              	.LVL75:
 664              		.loc 1 358 0
 665 0012 40F20003 		movw	r3, #:lower16:rlist
 666 0016 C0F20003 		movt	r3, #:upper16:rlist
 667 001a 0220     		movs	r0, #2
 668 001c 9B69     		ldr	r3, [r3, #24]
 669 001e A360     		str	r3, [r4, #8]
 670 0020 FFF7FEFF 		bl	chSchGoSleepS
 671              	.LBB29:
 672              		.loc 1 359 0
 673 0024 0023     		movs	r3, #0
 674              	.LVL76:
 675              	@ 359 "../../os/hal/src/spi.c" 1
ARM GAS  /tmp/ccOe3ak4.s 			page 13


 676 0026 83F31188 		msr     BASEPRI, r3
 677              	@ 0 "" 2
 678              	.LVL77:
 679              		.thumb
 680              	.LBE29:
 681              		.loc 1 360 0
 682 002a 10BD     		pop	{r4, pc}
 683              		.cfi_endproc
 684              	.LFE130:
 685              		.size	spiSend, .-spiSend
 686 002c AFF30080 		.section	.text.spiReceive,"ax",%progbits
 687              		.align	2
 688              		.p2align 4,,15
 689              		.global	spiReceive
 690              		.thumb
 691              		.thumb_func
 692              		.type	spiReceive, %function
 693              	spiReceive:
 694              	.LFB131:
 695              		.loc 1 378 0
 696              		.cfi_startproc
 697              		@ args = 0, pretend = 0, frame = 0
 698              		@ frame_needed = 0, uses_anonymous_args = 0
 699              	.LVL78:
 700 0000 10B5     		push	{r4, lr}
 701              	.LCFI11:
 702              		.cfi_def_cfa_offset 8
 703              		.cfi_offset 14, -4
 704              		.cfi_offset 4, -8
 705              	.LBB30:
 706              		.loc 1 383 0
 707 0002 2023     		movs	r3, #32
 708              	.LVL79:
 709              	.LBE30:
 710              		.loc 1 378 0
 711 0004 0446     		mov	r4, r0
 712              	.LBB31:
 713              		.loc 1 383 0
 714              	@ 383 "../../os/hal/src/spi.c" 1
 715 0006 83F31188 		msr     BASEPRI, r3
 716              	@ 0 "" 2
 717              	.LVL80:
 718              		.thumb
 719              	.LBE31:
 720              		.loc 1 387 0
 721 000a 0323     		movs	r3, #3
 722              	.LVL81:
 723 000c 0370     		strb	r3, [r0, #0]
 724 000e FFF7FEFF 		bl	spi_lld_receive
 725              	.LVL82:
 726              		.loc 1 388 0
 727 0012 40F20003 		movw	r3, #:lower16:rlist
 728 0016 C0F20003 		movt	r3, #:upper16:rlist
 729 001a 0220     		movs	r0, #2
 730 001c 9B69     		ldr	r3, [r3, #24]
 731 001e A360     		str	r3, [r4, #8]
 732 0020 FFF7FEFF 		bl	chSchGoSleepS
ARM GAS  /tmp/ccOe3ak4.s 			page 14


 733              	.LBB32:
 734              		.loc 1 389 0
 735 0024 0023     		movs	r3, #0
 736              	.LVL83:
 737              	@ 389 "../../os/hal/src/spi.c" 1
 738 0026 83F31188 		msr     BASEPRI, r3
 739              	@ 0 "" 2
 740              	.LVL84:
 741              		.thumb
 742              	.LBE32:
 743              		.loc 1 390 0
 744 002a 10BD     		pop	{r4, pc}
 745              		.cfi_endproc
 746              	.LFE131:
 747              		.size	spiReceive, .-spiReceive
 748 002c AFF30080 		.section	.text.spiAcquireBus,"ax",%progbits
 749              		.align	2
 750              		.p2align 4,,15
 751              		.global	spiAcquireBus
 752              		.thumb
 753              		.thumb_func
 754              		.type	spiAcquireBus, %function
 755              	spiAcquireBus:
 756              	.LFB132:
 757              		.loc 1 405 0
 758              		.cfi_startproc
 759              		@ args = 0, pretend = 0, frame = 0
 760              		@ frame_needed = 0, uses_anonymous_args = 0
 761              		@ link register save eliminated.
 762              	.LVL85:
 763              		.loc 1 410 0
 764 0000 0C30     		adds	r0, r0, #12
 765              	.LVL86:
 766              		.loc 1 414 0
 767              		.loc 1 410 0
 768 0002 FFF7FEBF 		b	chMtxLock
 769              	.LVL87:
 770              		.cfi_endproc
 771              	.LFE132:
 772              		.size	spiAcquireBus, .-spiAcquireBus
 773 0006 00BFAFF3 		.section	.text.spiReleaseBus,"ax",%progbits
 773      0080AFF3 
 773      0080
 774              		.align	2
 775              		.p2align 4,,15
 776              		.global	spiReleaseBus
 777              		.thumb
 778              		.thumb_func
 779              		.type	spiReleaseBus, %function
 780              	spiReleaseBus:
 781              	.LFB133:
 782              		.loc 1 425 0
 783              		.cfi_startproc
 784              		@ args = 0, pretend = 0, frame = 0
 785              		@ frame_needed = 0, uses_anonymous_args = 0
 786              		@ link register save eliminated.
 787              	.LVL88:
ARM GAS  /tmp/ccOe3ak4.s 			page 15


 788              		.loc 1 435 0
 789              		.loc 1 431 0
 790 0000 FFF7FEBF 		b	chMtxUnlock
 791              	.LVL89:
 792              		.cfi_endproc
 793              	.LFE133:
 794              		.size	spiReleaseBus, .-spiReleaseBus
 795 0004 AFF30080 		.text
 795      AFF30080 
 795      AFF30080 
 796              	.Letext0:
 797              		.file 2 "/home/craig/gcc/arm/lib/gcc/arm-none-eabi/4.6.2/include/stddef.h"
 798              		.file 3 "/home/craig/gcc/arm/lib/gcc/arm-none-eabi/4.6.2/../../../../arm-none-eabi/include/stdint.
 799              		.file 4 "../../os/ports/GCC/ARMCMx/chtypes.h"
 800              		.file 5 "../../os/kernel/include/chlists.h"
 801              		.file 6 "../../os/kernel/include/chthreads.h"
 802              		.file 7 "../../os/ports/GCC/ARMCMx/chcore_v7m.h"
 803              		.file 8 "../../os/kernel/include/chschd.h"
 804              		.file 9 "../../os/kernel/include/chmtx.h"
 805              		.file 10 "../../os/hal/platforms/STM32F4xx/stm32f4xx.h"
 806              		.file 11 "../../os/hal/platforms/STM32F4xx/stm32_dma.h"
 807              		.file 12 "../../os/hal/platforms/STM32/GPIOv2/pal_lld.h"
 808              		.file 13 "../../os/hal/include/spi.h"
 809              		.file 14 "../../os/hal/platforms/STM32/spi_lld.h"
 810              		.file 15 "../../os/ports/common/ARMCMx/CMSIS/include/core_cm4.h"